

Microchip MPLAB XC8 Assembler V2.32 build 20210201212658 
                                                                                               Tue Sep 07 16:24:25 2021

Microchip MPLAB XC8 C Compiler v2.32 (Free license) build 20210201212658 Og1 
     1                           	processor	16F887
     2                           	pagewidth 120
     3                           	opt	flic
     4                           	psect	strings,global,class=STRING,delta=2,noexec
     5                           	psect	cinit,global,class=CODE,merge=1,delta=2
     6                           	psect	bssCOMMON,global,class=COMMON,space=1,delta=1,noexec
     7                           	psect	bssBANK0,global,class=BANK0,space=1,delta=1,noexec
     8                           	psect	bssBANK1,global,class=BANK1,space=1,delta=1,noexec
     9                           	psect	clrtext,global,class=CODE,delta=2
    10                           	psect	cstackCOMMON,global,class=COMMON,space=1,delta=1,noexec
    11                           	psect	cstackBANK0,global,class=BANK0,space=1,delta=1,noexec
    12                           	psect	maintext,global,class=CODE,split=1,delta=2
    13                           	psect	text1,local,class=CODE,merge=1,delta=2
    14                           	psect	text2,local,class=CODE,merge=1,delta=2,group=1
    15                           	psect	text3,local,class=CODE,merge=1,delta=2,group=1
    16                           	psect	text4,local,class=CODE,merge=1,delta=2,group=1
    17                           	psect	text5,local,class=CODE,merge=1,delta=2,group=1
    18                           	psect	text6,local,class=CODE,merge=1,delta=2,group=1
    19                           	psect	text7,local,class=CODE,merge=1,delta=2,group=1
    20                           	psect	text8,local,class=CODE,merge=1,delta=2,group=1
    21                           	psect	text9,local,class=CODE,merge=1,delta=2
    22                           	psect	text10,local,class=CODE,merge=1,delta=2
    23                           	psect	text11,local,class=CODE,merge=1,delta=2
    24                           	psect	text12,local,class=CODE,merge=1,delta=2
    25                           	psect	text13,local,class=CODE,merge=1,delta=2
    26                           	psect	text14,local,class=CODE,merge=1,delta=2
    27                           	psect	text15,local,class=CODE,merge=1,delta=2
    28                           	psect	text16,local,class=CODE,merge=1,delta=2
    29                           	psect	intentry,global,class=CODE,delta=2
    30                           	psect	config,global,abs,ovrld,class=CONFIG,space=4,delta=2,noexec
    31                           	dabs	1,0x7E,2
    32  0000                     
    33                           ; Version 2.20
    34                           ; Generated 12/02/2020 GMT
    35                           ; 
    36                           ; Copyright © 2020, Microchip Technology Inc. and its subsidiaries ("Microchip")
    37                           ; All rights reserved.
    38                           ; 
    39                           ; This software is developed by Microchip Technology Inc. and its subsidiaries ("Microch
      +                          ip").
    40                           ; 
    41                           ; Redistribution and use in source and binary forms, with or without modification, are
    42                           ; permitted provided that the following conditions are met:
    43                           ; 
    44                           ;     1. Redistributions of source code must retain the above copyright notice, this lis
      +                          t of
    45                           ;        conditions and the following disclaimer.
    46                           ; 
    47                           ;     2. Redistributions in binary form must reproduce the above copyright notice, this 
      +                          list
    48                           ;        of conditions and the following disclaimer in the documentation and/or other
    49                           ;        materials provided with the distribution.
    50                           ; 
    51                           ;     3. Microchip's name may not be used to endorse or promote products derived from th
      +                          is
    52                           ;        software without specific prior written permission.
    53                           ; 
    54                           ; THIS SOFTWARE IS PROVIDED BY MICROCHIP "AS IS" AND ANY EXPRESS OR IMPLIED WARRANTIES,
    55                           ; INCLUDING, BUT NOT LIMITED TO, THE IMPLIED WARRANTIES OF MERCHANTABILITY AND FITNESS F
      +                          OR
    56                           ; PURPOSE ARE DISCLAIMED.  IN NO EVENT SHALL MICROCHIP BE LIABLE FOR ANY DIRECT, INDIREC
      +                          T,
    57                           ; INCIDENTAL, SPECIAL, EXEMPLARY, OR CONSEQUENTIAL DAMAGES (INCLUDING BUT NOT LIMITED TO
    58                           ; PROCUREMENT OF SUBSTITUTE GOODS OR SERVICES; LOSS OF USE, DATA OR PROFITS; OR BUSINESS
    59                           ; INTERRUPTION) HOWSOEVER CAUSED AND ON ANY THEORY OF LIABILITY, WHETHER IN CONTRACT, ST
      +                          RICT
    60                           ; LIABILITY, OR TORT (INCLUDING NEGLIGENCE OR OTHERWISE) ARISING IN ANY WAY OUT OF THE U
      +                          SE OF
    61                           ; THIS SOFTWARE, EVEN IF ADVISED OF THE POSSIBILITY OF SUCH DAMAGE.
    62                           ; 
    63                           ; 
    64                           ; Code-generator required, PIC16F887 Definitions
    65                           ; 
    66                           ; SFR Addresses
    67  0000                     	;# 
    68  0001                     	;# 
    69  0002                     	;# 
    70  0003                     	;# 
    71  0004                     	;# 
    72  0005                     	;# 
    73  0006                     	;# 
    74  0007                     	;# 
    75  0008                     	;# 
    76  0009                     	;# 
    77  000A                     	;# 
    78  000B                     	;# 
    79  000C                     	;# 
    80  000D                     	;# 
    81  000E                     	;# 
    82  000E                     	;# 
    83  000F                     	;# 
    84  0010                     	;# 
    85  0011                     	;# 
    86  0012                     	;# 
    87  0013                     	;# 
    88  0014                     	;# 
    89  0015                     	;# 
    90  0015                     	;# 
    91  0016                     	;# 
    92  0017                     	;# 
    93  0018                     	;# 
    94  0019                     	;# 
    95  001A                     	;# 
    96  001B                     	;# 
    97  001B                     	;# 
    98  001C                     	;# 
    99  001D                     	;# 
   100  001E                     	;# 
   101  001F                     	;# 
   102  0081                     	;# 
   103  0085                     	;# 
   104  0086                     	;# 
   105  0087                     	;# 
   106  0088                     	;# 
   107  0089                     	;# 
   108  008C                     	;# 
   109  008D                     	;# 
   110  008E                     	;# 
   111  008F                     	;# 
   112  0090                     	;# 
   113  0091                     	;# 
   114  0092                     	;# 
   115  0093                     	;# 
   116  0093                     	;# 
   117  0093                     	;# 
   118  0094                     	;# 
   119  0095                     	;# 
   120  0096                     	;# 
   121  0097                     	;# 
   122  0098                     	;# 
   123  0099                     	;# 
   124  009A                     	;# 
   125  009B                     	;# 
   126  009C                     	;# 
   127  009D                     	;# 
   128  009E                     	;# 
   129  009F                     	;# 
   130  0105                     	;# 
   131  0107                     	;# 
   132  0108                     	;# 
   133  0109                     	;# 
   134  010C                     	;# 
   135  010C                     	;# 
   136  010D                     	;# 
   137  010E                     	;# 
   138  010F                     	;# 
   139  0185                     	;# 
   140  0187                     	;# 
   141  0188                     	;# 
   142  0189                     	;# 
   143  018C                     	;# 
   144  018D                     	;# 
   145  0000                     	;# 
   146  0001                     	;# 
   147  0002                     	;# 
   148  0003                     	;# 
   149  0004                     	;# 
   150  0005                     	;# 
   151  0006                     	;# 
   152  0007                     	;# 
   153  0008                     	;# 
   154  0009                     	;# 
   155  000A                     	;# 
   156  000B                     	;# 
   157  000C                     	;# 
   158  000D                     	;# 
   159  000E                     	;# 
   160  000E                     	;# 
   161  000F                     	;# 
   162  0010                     	;# 
   163  0011                     	;# 
   164  0012                     	;# 
   165  0013                     	;# 
   166  0014                     	;# 
   167  0015                     	;# 
   168  0015                     	;# 
   169  0016                     	;# 
   170  0017                     	;# 
   171  0018                     	;# 
   172  0019                     	;# 
   173  001A                     	;# 
   174  001B                     	;# 
   175  001B                     	;# 
   176  001C                     	;# 
   177  001D                     	;# 
   178  001E                     	;# 
   179  001F                     	;# 
   180  0081                     	;# 
   181  0085                     	;# 
   182  0086                     	;# 
   183  0087                     	;# 
   184  0088                     	;# 
   185  0089                     	;# 
   186  008C                     	;# 
   187  008D                     	;# 
   188  008E                     	;# 
   189  008F                     	;# 
   190  0090                     	;# 
   191  0091                     	;# 
   192  0092                     	;# 
   193  0093                     	;# 
   194  0093                     	;# 
   195  0093                     	;# 
   196  0094                     	;# 
   197  0095                     	;# 
   198  0096                     	;# 
   199  0097                     	;# 
   200  0098                     	;# 
   201  0099                     	;# 
   202  009A                     	;# 
   203  009B                     	;# 
   204  009C                     	;# 
   205  009D                     	;# 
   206  009E                     	;# 
   207  009F                     	;# 
   208  0105                     	;# 
   209  0107                     	;# 
   210  0108                     	;# 
   211  0109                     	;# 
   212  010C                     	;# 
   213  010C                     	;# 
   214  010D                     	;# 
   215  010E                     	;# 
   216  010F                     	;# 
   217  0185                     	;# 
   218  0187                     	;# 
   219  0188                     	;# 
   220  0189                     	;# 
   221  018C                     	;# 
   222  018D                     	;# 
   223  0000                     	;# 
   224  0001                     	;# 
   225  0002                     	;# 
   226  0003                     	;# 
   227  0004                     	;# 
   228  0005                     	;# 
   229  0006                     	;# 
   230  0007                     	;# 
   231  0008                     	;# 
   232  0009                     	;# 
   233  000A                     	;# 
   234  000B                     	;# 
   235  000C                     	;# 
   236  000D                     	;# 
   237  000E                     	;# 
   238  000E                     	;# 
   239  000F                     	;# 
   240  0010                     	;# 
   241  0011                     	;# 
   242  0012                     	;# 
   243  0013                     	;# 
   244  0014                     	;# 
   245  0015                     	;# 
   246  0015                     	;# 
   247  0016                     	;# 
   248  0017                     	;# 
   249  0018                     	;# 
   250  0019                     	;# 
   251  001A                     	;# 
   252  001B                     	;# 
   253  001B                     	;# 
   254  001C                     	;# 
   255  001D                     	;# 
   256  001E                     	;# 
   257  001F                     	;# 
   258  0081                     	;# 
   259  0085                     	;# 
   260  0086                     	;# 
   261  0087                     	;# 
   262  0088                     	;# 
   263  0089                     	;# 
   264  008C                     	;# 
   265  008D                     	;# 
   266  008E                     	;# 
   267  008F                     	;# 
   268  0090                     	;# 
   269  0091                     	;# 
   270  0092                     	;# 
   271  0093                     	;# 
   272  0093                     	;# 
   273  0093                     	;# 
   274  0094                     	;# 
   275  0095                     	;# 
   276  0096                     	;# 
   277  0097                     	;# 
   278  0098                     	;# 
   279  0099                     	;# 
   280  009A                     	;# 
   281  009B                     	;# 
   282  009C                     	;# 
   283  009D                     	;# 
   284  009E                     	;# 
   285  009F                     	;# 
   286  0105                     	;# 
   287  0107                     	;# 
   288  0108                     	;# 
   289  0109                     	;# 
   290  010C                     	;# 
   291  010C                     	;# 
   292  010D                     	;# 
   293  010E                     	;# 
   294  010F                     	;# 
   295  0185                     	;# 
   296  0187                     	;# 
   297  0188                     	;# 
   298  0189                     	;# 
   299  018C                     	;# 
   300  018D                     	;# 
   301  0000                     	;# 
   302  0001                     	;# 
   303  0002                     	;# 
   304  0003                     	;# 
   305  0004                     	;# 
   306  0005                     	;# 
   307  0006                     	;# 
   308  0007                     	;# 
   309  0008                     	;# 
   310  0009                     	;# 
   311  000A                     	;# 
   312  000B                     	;# 
   313  000C                     	;# 
   314  000D                     	;# 
   315  000E                     	;# 
   316  000E                     	;# 
   317  000F                     	;# 
   318  0010                     	;# 
   319  0011                     	;# 
   320  0012                     	;# 
   321  0013                     	;# 
   322  0014                     	;# 
   323  0015                     	;# 
   324  0015                     	;# 
   325  0016                     	;# 
   326  0017                     	;# 
   327  0018                     	;# 
   328  0019                     	;# 
   329  001A                     	;# 
   330  001B                     	;# 
   331  001B                     	;# 
   332  001C                     	;# 
   333  001D                     	;# 
   334  001E                     	;# 
   335  001F                     	;# 
   336  0081                     	;# 
   337  0085                     	;# 
   338  0086                     	;# 
   339  0087                     	;# 
   340  0088                     	;# 
   341  0089                     	;# 
   342  008C                     	;# 
   343  008D                     	;# 
   344  008E                     	;# 
   345  008F                     	;# 
   346  0090                     	;# 
   347  0091                     	;# 
   348  0092                     	;# 
   349  0093                     	;# 
   350  0093                     	;# 
   351  0093                     	;# 
   352  0094                     	;# 
   353  0095                     	;# 
   354  0096                     	;# 
   355  0097                     	;# 
   356  0098                     	;# 
   357  0099                     	;# 
   358  009A                     	;# 
   359  009B                     	;# 
   360  009C                     	;# 
   361  009D                     	;# 
   362  009E                     	;# 
   363  009F                     	;# 
   364  0105                     	;# 
   365  0107                     	;# 
   366  0108                     	;# 
   367  0109                     	;# 
   368  010C                     	;# 
   369  010C                     	;# 
   370  010D                     	;# 
   371  010E                     	;# 
   372  010F                     	;# 
   373  0185                     	;# 
   374  0187                     	;# 
   375  0188                     	;# 
   376  0189                     	;# 
   377  018C                     	;# 
   378  018D                     	;# 
   379  000B                     _INTCONbits	set	11
   380  0007                     _PORTC	set	7
   381  0006                     _PORTB	set	6
   382  0005                     _PORTA	set	5
   383  0009                     _PORTE	set	9
   384  001E                     _ADRESH	set	30
   385  001F                     _ADCON0bits	set	31
   386  0008                     _PORTD	set	8
   387  0013                     _SSPBUF	set	19
   388  0014                     _SSPCON	set	20
   389  0066                     _ADIF	set	102
   390  0049                     _RE1	set	73
   391  0048                     _RE0	set	72
   392  0063                     _SSPIF	set	99
   393  005E                     _PEIE	set	94
   394  005F                     _GIE	set	95
   395  009F                     _ADCON1bits	set	159
   396  008F                     _OSCCONbits	set	143
   397  0089                     _TRISE	set	137
   398  0088                     _TRISD	set	136
   399  0087                     _TRISC	set	135
   400  0086                     _TRISB	set	134
   401  0085                     _TRISA	set	133
   402  009E                     _ADRESL	set	158
   403  0091                     _SSPCON2bits	set	145
   404  0087                     _TRISCbits	set	135
   405  0094                     _SSPSTAT	set	148
   406  0093                     _SSPADD	set	147
   407  0091                     _SSPCON2	set	145
   408  0463                     _SSPIE	set	1123
   409  043C                     _TRISC4	set	1084
   410  043B                     _TRISC3	set	1083
   411  0189                     _ANSELH	set	393
   412  0188                     _ANSEL	set	392
   413                           
   414                           	psect	strings
   415  0800                     __pstrings:
   416  0800                     stringtab:
   417  0800                     __stringtab:
   418  0800                     stringcode:	
   419                           ;	String table - string pointers are 1 byte each
   420                           
   421  0800                     stringdir:
   422  0800  3008               	movlw	high stringdir
   423  0801  008A               	movwf	10
   424  0802  0804               	movf	4,w
   425  0803  0A84               	incf	4,f
   426  0804  0782               	addwf	2,f
   427  0805                     __stringbase:
   428  0805  3400               	retlw	0
   429  0806                     __end_of__stringtab:
   430  0806                     STR_1:
   431  0806  3420               	retlw	32	;' '
   432  0807  3453               	retlw	83	;'S'
   433  0808  3431               	retlw	49	;'1'
   434  0809  343A               	retlw	58	;':'
   435  080A  3420               	retlw	32	;' '
   436  080B  3420               	retlw	32	;' '
   437  080C  3420               	retlw	32	;' '
   438  080D  3453               	retlw	83	;'S'
   439  080E  3432               	retlw	50	;'2'
   440  080F  343A               	retlw	58	;':'
   441  0810  3420               	retlw	32	;' '
   442  0811  3420               	retlw	32	;' '
   443  0812  3420               	retlw	32	;' '
   444  0813  3453               	retlw	83	;'S'
   445  0814  3433               	retlw	51	;'3'
   446  0815  343A               	retlw	58	;':'
   447  0816  3400               	retlw	0
   448                           
   449                           	psect	cinit
   450  000F                     start_initialization:	
   451                           ; #config settings
   452                           
   453  000F                     __initialization:
   454                           
   455                           ; Clear objects allocated to COMMON
   456  000F  01F8               	clrf	__pbssCOMMON& (0+127)
   457  0010  01F9               	clrf	(__pbssCOMMON+1)& (0+127)
   458                           
   459                           ; Clear objects allocated to BANK0
   460  0011  1283               	bcf	3,5	;RP0=0, select bank0
   461  0012  1303               	bcf	3,6	;RP1=0, select bank0
   462  0013  01E9               	clrf	__pbssBANK0& (0+127)
   463  0014  01EA               	clrf	(__pbssBANK0+1)& (0+127)
   464  0015  01EB               	clrf	(__pbssBANK0+2)& (0+127)
   465  0016  01EC               	clrf	(__pbssBANK0+3)& (0+127)
   466                           
   467                           ; Clear objects allocated to BANK1
   468  0017  1383               	bcf	3,7	;select IRP bank0
   469  0018  30A0               	movlw	low __pbssBANK1
   470  0019  0084               	movwf	4
   471  001A  30B4               	movlw	low (__pbssBANK1+20)
   472  001B  120A  158A  2424  120A  118A  	fcall	clear_ram0
   473  0020                     end_of_initialization:	
   474                           ;End of C runtime variable initialization code
   475                           
   476  0020                     __end_of__initialization:
   477  0020  0183               	clrf	3
   478  0021  120A  158A  2F14   	ljmp	_main	;jump to C main() function
   479                           
   480                           	psect	bssCOMMON
   481  0078                     __pbssCOMMON:
   482  0078                     _sun_pot:
   483  0078                     	ds	2
   484                           
   485                           	psect	bssBANK0
   486  0069                     __pbssBANK0:
   487  0069                     _an_sun:
   488  0069                     	ds	4
   489                           
   490                           	psect	bssBANK1
   491  00A0                     __pbssBANK1:
   492  00A0                     _buffer:
   493  00A0                     	ds	16
   494  00B0                     _LDR:
   495  00B0                     	ds	4
   496                           
   497                           	psect	clrtext
   498  0C24                     clear_ram0:	
   499                           ;	Called with FSR containing the base address, and
   500                           ;	W with the last address+1
   501                           
   502  0C24  0064               	clrwdt	;clear the watchdog before getting into this loop
   503  0C25                     clrloop0:
   504  0C25  0180               	clrf	0	;clear RAM location pointed to by FSR
   505  0C26  0A84               	incf	4,f	;increment pointer
   506  0C27  0604               	xorwf	4,w	;XOR with final address
   507  0C28  1903               	btfsc	3,2	;have we reached the end yet?
   508  0C29  3400               	retlw	0	;all done for this memory range, return
   509  0C2A  0604               	xorwf	4,w	;XOR again to restore value
   510  0C2B  2C25               	goto	clrloop0	;do the next byte
   511                           
   512                           	psect	cstackCOMMON
   513  0070                     __pcstackCOMMON:
   514  0070                     ?_initSETUP:
   515  0070                     ?_Lcd_Port:	
   516                           ; 1 bytes @ 0x0
   517                           
   518  0070                     ?_Lcd_Cmd:	
   519                           ; 1 bytes @ 0x0
   520                           
   521  0070                     ?_Lcd_Clear:	
   522                           ; 1 bytes @ 0x0
   523                           
   524  0070                     ?_Lcd_Init:	
   525                           ; 1 bytes @ 0x0
   526                           
   527  0070                     ?_Lcd_Write_Char:	
   528                           ; 1 bytes @ 0x0
   529                           
   530  0070                     ?_Lcd_Write_String:	
   531                           ; 1 bytes @ 0x0
   532                           
   533  0070                     ?_main:	
   534                           ; 1 bytes @ 0x0
   535                           
   536  0070                     ?_isr:	
   537                           ; 1 bytes @ 0x0
   538                           
   539  0070                     ??_isr:	
   540                           ; 1 bytes @ 0x0
   541                           
   542                           
   543                           ; 1 bytes @ 0x0
   544  0070                     	ds	4
   545  0074                     ??_initSETUP:
   546  0074                     ??_Lcd_Port:	
   547                           ; 1 bytes @ 0x4
   548                           
   549  0074                     ?__Umul8_16:	
   550                           ; 1 bytes @ 0x4
   551                           
   552  0074                     ?___fltol:	
   553                           ; 2 bytes @ 0x4
   554                           
   555  0074                     ?___xxtofl:	
   556                           ; 4 bytes @ 0x4
   557                           
   558  0074                     Lcd_Port@a:	
   559                           ; 4 bytes @ 0x4
   560                           
   561  0074                     ___fladd@signs:	
   562                           ; 1 bytes @ 0x4
   563                           
   564  0074                     __Umul8_16@multiplicand:	
   565                           ; 1 bytes @ 0x4
   566                           
   567  0074                     ___fltol@f1:	
   568                           ; 1 bytes @ 0x4
   569                           
   570  0074                     ___xxtofl@val:	
   571                           ; 4 bytes @ 0x4
   572                           
   573                           
   574                           ; 4 bytes @ 0x4
   575  0074                     	ds	1
   576  0075                     ??_Lcd_Cmd:
   577  0075                     ??_Lcd_Write_Char:	
   578                           ; 1 bytes @ 0x5
   579                           
   580  0075                     ___fladd@aexp:	
   581                           ; 1 bytes @ 0x5
   582                           
   583                           
   584                           ; 1 bytes @ 0x5
   585  0075                     	ds	1
   586  0076                     ??__Umul8_16:
   587  0076                     ??_Lcd_Write_String:	
   588                           ; 1 bytes @ 0x6
   589                           
   590  0076                     ___fladd@bexp:	
   591                           ; 1 bytes @ 0x6
   592                           
   593                           
   594                           ; 1 bytes @ 0x6
   595  0076                     	ds	1
   596  0077                     Lcd_Cmd@a:
   597  0077                     ___fladd@grs:	
   598                           ; 1 bytes @ 0x7
   599                           
   600                           
   601                           ; 1 bytes @ 0x7
   602  0077                     	ds	1
   603  0078                     ??_Lcd_Clear:
   604  0078                     ??___flsub:	
   605                           ; 1 bytes @ 0x8
   606                           
   607                           
   608                           	psect	cstackBANK0
   609  0020                     __pcstackBANK0:	
   610                           ; 1 bytes @ 0x8
   611                           
   612  0020                     ?_Lcd_Set_Cursor:
   613  0020                     ??_Lcd_Init:	
   614                           ; 1 bytes @ 0x0
   615                           
   616  0020                     ??___fltol:	
   617                           ; 1 bytes @ 0x0
   618                           
   619  0020                     ??___xxtofl:	
   620                           ; 1 bytes @ 0x0
   621                           
   622  0020                     ?___fladd:	
   623                           ; 1 bytes @ 0x0
   624                           
   625  0020                     Lcd_Set_Cursor@b:	
   626                           ; 4 bytes @ 0x0
   627                           
   628  0020                     Lcd_Write_Char@a:	
   629                           ; 1 bytes @ 0x0
   630                           
   631  0020                     __Umul8_16@product:	
   632                           ; 1 bytes @ 0x0
   633                           
   634  0020                     ___fladd@b:	
   635                           ; 2 bytes @ 0x0
   636                           
   637                           
   638                           ; 4 bytes @ 0x0
   639  0020                     	ds	1
   640  0021                     ??_Lcd_Set_Cursor:
   641  0021                     Lcd_Write_Char@temp:	
   642                           ; 1 bytes @ 0x1
   643                           
   644                           
   645                           ; 1 bytes @ 0x1
   646  0021                     	ds	1
   647  0022                     Lcd_Write_Char@y:
   648  0022                     __Umul8_16@word_mpld:	
   649                           ; 1 bytes @ 0x2
   650                           
   651                           
   652                           ; 2 bytes @ 0x2
   653  0022                     	ds	1
   654  0023                     Lcd_Set_Cursor@a:
   655  0023                     Lcd_Write_String@a:	
   656                           ; 1 bytes @ 0x3
   657                           
   658                           
   659                           ; 1 bytes @ 0x3
   660  0023                     	ds	1
   661  0024                     Lcd_Set_Cursor@z:
   662  0024                     __Umul8_16@multiplier:	
   663                           ; 1 bytes @ 0x4
   664                           
   665  0024                     ___xxtofl@sign:	
   666                           ; 1 bytes @ 0x4
   667                           
   668  0024                     Lcd_Write_String@i:	
   669                           ; 1 bytes @ 0x4
   670                           
   671  0024                     ___fladd@a:	
   672                           ; 2 bytes @ 0x4
   673                           
   674                           
   675                           ; 4 bytes @ 0x4
   676  0024                     	ds	1
   677  0025                     Lcd_Set_Cursor@y:
   678  0025                     ___fltol@sign1:	
   679                           ; 1 bytes @ 0x5
   680                           
   681  0025                     ___xxtofl@exp:	
   682                           ; 1 bytes @ 0x5
   683                           
   684                           
   685                           ; 1 bytes @ 0x5
   686  0025                     	ds	1
   687  0026                     Lcd_Set_Cursor@temp:
   688  0026                     ___fltol@exp1:	
   689                           ; 1 bytes @ 0x6
   690                           
   691  0026                     ___xxtofl@arg:	
   692                           ; 1 bytes @ 0x6
   693                           
   694                           
   695                           ; 4 bytes @ 0x6
   696  0026                     	ds	2
   697  0028                     ??___fladd:
   698                           
   699                           ; 1 bytes @ 0x8
   700  0028                     	ds	2
   701  002A                     ?___flmul:
   702  002A                     ___flmul@b:	
   703                           ; 4 bytes @ 0xA
   704                           
   705                           
   706                           ; 4 bytes @ 0xA
   707  002A                     	ds	4
   708  002E                     ___flmul@a:
   709                           
   710                           ; 4 bytes @ 0xE
   711  002E                     	ds	4
   712  0032                     ??___flmul:
   713                           
   714                           ; 1 bytes @ 0x12
   715  0032                     	ds	5
   716  0037                     ___flmul@sign:
   717                           
   718                           ; 1 bytes @ 0x17
   719  0037                     	ds	1
   720  0038                     ___flmul@grs:
   721                           
   722                           ; 4 bytes @ 0x18
   723  0038                     	ds	4
   724  003C                     ___flmul@aexp:
   725                           
   726                           ; 1 bytes @ 0x1C
   727  003C                     	ds	1
   728  003D                     ___flmul@bexp:
   729                           
   730                           ; 1 bytes @ 0x1D
   731  003D                     	ds	1
   732  003E                     ___flmul@prod:
   733                           
   734                           ; 4 bytes @ 0x1E
   735  003E                     	ds	4
   736  0042                     ___flmul@temp:
   737                           
   738                           ; 2 bytes @ 0x22
   739  0042                     	ds	2
   740  0044                     ?___flsub:
   741  0044                     ___flsub@a:	
   742                           ; 4 bytes @ 0x24
   743                           
   744                           
   745                           ; 4 bytes @ 0x24
   746  0044                     	ds	4
   747  0048                     ___flsub@b:
   748                           
   749                           ; 4 bytes @ 0x28
   750  0048                     	ds	4
   751  004C                     ?___fldiv:
   752  004C                     ___fldiv@a:	
   753                           ; 4 bytes @ 0x2C
   754                           
   755                           
   756                           ; 4 bytes @ 0x2C
   757  004C                     	ds	4
   758  0050                     ___fldiv@b:
   759                           
   760                           ; 4 bytes @ 0x30
   761  0050                     	ds	4
   762  0054                     ??___fldiv:
   763                           
   764                           ; 1 bytes @ 0x34
   765  0054                     	ds	5
   766  0059                     ___fldiv@rem:
   767                           
   768                           ; 4 bytes @ 0x39
   769  0059                     	ds	4
   770  005D                     ___fldiv@sign:
   771                           
   772                           ; 1 bytes @ 0x3D
   773  005D                     	ds	1
   774  005E                     ___fldiv@new_exp:
   775                           
   776                           ; 2 bytes @ 0x3E
   777  005E                     	ds	2
   778  0060                     ___fldiv@grs:
   779                           
   780                           ; 4 bytes @ 0x40
   781  0060                     	ds	4
   782  0064                     ___fldiv@bexp:
   783                           
   784                           ; 1 bytes @ 0x44
   785  0064                     	ds	1
   786  0065                     ___fldiv@aexp:
   787                           
   788                           ; 1 bytes @ 0x45
   789  0065                     	ds	1
   790  0066                     ??_main:
   791                           
   792                           ; 1 bytes @ 0x46
   793  0066                     	ds	3
   794                           
   795                           	psect	maintext
   796  0F14                     __pmaintext:	
   797 ;;
   798 ;;Main: autosize = 0, tempsize = 3, incstack = 0, save=0
   799 ;;
   800 ;; *************** function _main *****************
   801 ;; Defined at:
   802 ;;		line 44 in file "Slave_1_main.c"
   803 ;; Parameters:    Size  Location     Type
   804 ;;		None
   805 ;; Auto vars:     Size  Location     Type
   806 ;;		None
   807 ;; Return value:  Size  Location     Type
   808 ;;                  1    wreg      void 
   809 ;; Registers used:
   810 ;;		wreg, fsr0l, fsr0h, status,2, status,0, btemp+1, pclath, cstack
   811 ;; Tracked objects:
   812 ;;		On entry : B00/0
   813 ;;		On exit  : 0/0
   814 ;;		Unchanged: 0/0
   815 ;; Data sizes:     COMMON   BANK0   BANK1   BANK3   BANK2
   816 ;;      Params:         0       0       0       0       0
   817 ;;      Locals:         0       0       0       0       0
   818 ;;      Temps:          0       3       0       0       0
   819 ;;      Totals:         0       3       0       0       0
   820 ;;Total ram usage:        3 bytes
   821 ;; Hardware stack levels required when called: 4
   822 ;; This function calls:
   823 ;;		_Lcd_Clear
   824 ;;		_Lcd_Init
   825 ;;		_Lcd_Set_Cursor
   826 ;;		_Lcd_Write_Char
   827 ;;		_Lcd_Write_String
   828 ;;		___fldiv
   829 ;;		___flmul
   830 ;;		___flsub
   831 ;;		___fltol
   832 ;;		___xxtofl
   833 ;;		_initSETUP
   834 ;; This function is called by:
   835 ;;		Startup code after reset
   836 ;; This function uses a non-reentrant model
   837 ;;
   838                           
   839                           
   840                           ;psect for function _main
   841  0F14                     _main:
   842  0F14                     l2359:	
   843                           ;incstack = 0
   844                           ; Regs used in _main: [wreg-fsr0h+status,2+status,0+btemp+1+pclath+cstack]
   845                           
   846                           
   847                           ;Slave_1_main.c: 45:     initSETUP();
   848  0F14  120A  158A  2508  120A  158A  	fcall	_initSETUP
   849                           
   850                           ;Slave_1_main.c: 46:     Lcd_Init();
   851  0F19  120A  158A  2538  120A  158A  	fcall	_Lcd_Init
   852                           
   853                           ;Slave_1_main.c: 47:     Lcd_Clear();
   854  0F1E  120A  118A  27F2  120A  158A  	fcall	_Lcd_Clear
   855                           
   856                           ;Slave_1_main.c: 48:     Lcd_Set_Cursor(1,1);
   857  0F23  1283               	bcf	3,5	;RP0=0, select bank0
   858  0F24  1303               	bcf	3,6	;RP1=0, select bank0
   859  0F25  01A0               	clrf	Lcd_Set_Cursor@b
   860  0F26  0AA0               	incf	Lcd_Set_Cursor@b,f
   861  0F27  3001               	movlw	1
   862  0F28  120A  158A  2584  120A  158A  	fcall	_Lcd_Set_Cursor
   863  0F2D                     l2361:
   864                           
   865                           ;Slave_1_main.c: 49:     Lcd_Write_String(" S1:   S2:   S3:");
   866  0F2D  3001               	movlw	(low ((STR_1-__stringbase)| (0+32768)))& (0+255)
   867  0F2E  120A  158A  2488  120A  158A  	fcall	_Lcd_Write_String
   868  0F33                     l2363:
   869                           
   870                           ;Slave_1_main.c: 50:     ADCON0bits.GO = 1;
   871  0F33  1283               	bcf	3,5	;RP0=0, select bank0
   872  0F34  1303               	bcf	3,6	;RP1=0, select bank0
   873  0F35  149F               	bsf	31,1	;volatile
   874  0F36                     l2365:
   875                           
   876                           ;Slave_1_main.c: 52:         an_sun = (48.8758*sun_pot)/(5.0-(0.00488758*sun_pot));
   877  0F36  303B               	movlw	59
   878  0F37  1283               	bcf	3,5	;RP0=0, select bank0
   879  0F38  1303               	bcf	3,6	;RP1=0, select bank0
   880  0F39  00AD               	movwf	___flmul@b+3
   881  0F3A  30A0               	movlw	160
   882  0F3B  00AC               	movwf	___flmul@b+2
   883  0F3C  3027               	movlw	39
   884  0F3D  00AB               	movwf	___flmul@b+1
   885  0F3E  30FE               	movlw	254
   886  0F3F  00AA               	movwf	___flmul@b
   887  0F40  0878               	movf	_sun_pot,w
   888  0F41  00F4               	movwf	___xxtofl@val
   889  0F42  0879               	movf	_sun_pot+1,w
   890  0F43  00F5               	movwf	___xxtofl@val+1
   891  0F44  01F6               	clrf	___xxtofl@val+2
   892  0F45  01F7               	clrf	___xxtofl@val+3
   893  0F46  3000               	movlw	0
   894  0F47  120A  158A  2658  120A  158A  	fcall	___xxtofl
   895  0F4C  0877               	movf	?___xxtofl+3,w
   896  0F4D  1283               	bcf	3,5	;RP0=0, select bank0
   897  0F4E  1303               	bcf	3,6	;RP1=0, select bank0
   898  0F4F  00B1               	movwf	___flmul@a+3
   899  0F50  0876               	movf	?___xxtofl+2,w
   900  0F51  00B0               	movwf	___flmul@a+2
   901  0F52  0875               	movf	?___xxtofl+1,w
   902  0F53  00AF               	movwf	___flmul@a+1
   903  0F54  0874               	movf	?___xxtofl,w
   904  0F55  00AE               	movwf	___flmul@a
   905  0F56  120A  118A  2024  120A  158A  	fcall	___flmul
   906  0F5B  1283               	bcf	3,5	;RP0=0, select bank0
   907  0F5C  1303               	bcf	3,6	;RP1=0, select bank0
   908  0F5D  082D               	movf	?___flmul+3,w
   909  0F5E  00C7               	movwf	___flsub@a+3
   910  0F5F  082C               	movf	?___flmul+2,w
   911  0F60  00C6               	movwf	___flsub@a+2
   912  0F61  082B               	movf	?___flmul+1,w
   913  0F62  00C5               	movwf	___flsub@a+1
   914  0F63  082A               	movf	?___flmul,w
   915  0F64  00C4               	movwf	___flsub@a
   916  0F65  3040               	movlw	64
   917  0F66  00CB               	movwf	___flsub@b+3
   918  0F67  30A0               	movlw	160
   919  0F68  00CA               	movwf	___flsub@b+2
   920  0F69  3000               	movlw	0
   921  0F6A  00C9               	movwf	___flsub@b+1
   922  0F6B  3000               	movlw	0
   923  0F6C  00C8               	movwf	___flsub@b
   924  0F6D  120A  158A  2464  120A  158A  	fcall	___flsub
   925  0F72  1283               	bcf	3,5	;RP0=0, select bank0
   926  0F73  1303               	bcf	3,6	;RP1=0, select bank0
   927  0F74  0847               	movf	?___flsub+3,w
   928  0F75  00CF               	movwf	___fldiv@a+3
   929  0F76  0846               	movf	?___flsub+2,w
   930  0F77  00CE               	movwf	___fldiv@a+2
   931  0F78  0845               	movf	?___flsub+1,w
   932  0F79  00CD               	movwf	___fldiv@a+1
   933  0F7A  0844               	movf	?___flsub,w
   934  0F7B  00CC               	movwf	___fldiv@a
   935  0F7C  3042               	movlw	66
   936  0F7D  00AD               	movwf	___flmul@b+3
   937  0F7E  3043               	movlw	67
   938  0F7F  00AC               	movwf	___flmul@b+2
   939  0F80  3080               	movlw	128
   940  0F81  00AB               	movwf	___flmul@b+1
   941  0F82  30D2               	movlw	210
   942  0F83  00AA               	movwf	___flmul@b
   943  0F84  0878               	movf	_sun_pot,w
   944  0F85  00F4               	movwf	___xxtofl@val
   945  0F86  0879               	movf	_sun_pot+1,w
   946  0F87  00F5               	movwf	___xxtofl@val+1
   947  0F88  01F6               	clrf	___xxtofl@val+2
   948  0F89  01F7               	clrf	___xxtofl@val+3
   949  0F8A  3000               	movlw	0
   950  0F8B  120A  158A  2658  120A  158A  	fcall	___xxtofl
   951  0F90  0877               	movf	?___xxtofl+3,w
   952  0F91  1283               	bcf	3,5	;RP0=0, select bank0
   953  0F92  1303               	bcf	3,6	;RP1=0, select bank0
   954  0F93  00B1               	movwf	___flmul@a+3
   955  0F94  0876               	movf	?___xxtofl+2,w
   956  0F95  00B0               	movwf	___flmul@a+2
   957  0F96  0875               	movf	?___xxtofl+1,w
   958  0F97  00AF               	movwf	___flmul@a+1
   959  0F98  0874               	movf	?___xxtofl,w
   960  0F99  00AE               	movwf	___flmul@a
   961  0F9A  120A  118A  2024  120A  158A  	fcall	___flmul
   962  0F9F  1283               	bcf	3,5	;RP0=0, select bank0
   963  0FA0  1303               	bcf	3,6	;RP1=0, select bank0
   964  0FA1  082D               	movf	?___flmul+3,w
   965  0FA2  00D3               	movwf	___fldiv@b+3
   966  0FA3  082C               	movf	?___flmul+2,w
   967  0FA4  00D2               	movwf	___fldiv@b+2
   968  0FA5  082B               	movf	?___flmul+1,w
   969  0FA6  00D1               	movwf	___fldiv@b+1
   970  0FA7  082A               	movf	?___flmul,w
   971  0FA8  00D0               	movwf	___fldiv@b
   972  0FA9  120A  118A  2615  120A  158A  	fcall	___fldiv
   973  0FAE  1283               	bcf	3,5	;RP0=0, select bank0
   974  0FAF  1303               	bcf	3,6	;RP1=0, select bank0
   975  0FB0  084F               	movf	?___fldiv+3,w
   976  0FB1  00EC               	movwf	_an_sun+3
   977  0FB2  084E               	movf	?___fldiv+2,w
   978  0FB3  00EB               	movwf	_an_sun+2
   979  0FB4  084D               	movf	?___fldiv+1,w
   980  0FB5  00EA               	movwf	_an_sun+1
   981  0FB6  084C               	movf	?___fldiv,w
   982  0FB7  00E9               	movwf	_an_sun
   983  0FB8                     l2367:
   984                           
   985                           ;Slave_1_main.c: 53:         LDR = an_sun;
   986  0FB8  086C               	movf	_an_sun+3,w
   987  0FB9  00F7               	movwf	___fltol@f1+3
   988  0FBA  086B               	movf	_an_sun+2,w
   989  0FBB  00F6               	movwf	___fltol@f1+2
   990  0FBC  086A               	movf	_an_sun+1,w
   991  0FBD  00F5               	movwf	___fltol@f1+1
   992  0FBE  0869               	movf	_an_sun,w
   993  0FBF  00F4               	movwf	___fltol@f1
   994  0FC0  120A  158A  25DC  120A  158A  	fcall	___fltol
   995  0FC5  0877               	movf	?___fltol+3,w
   996  0FC6  1683               	bsf	3,5	;RP0=1, select bank1
   997  0FC7  1303               	bcf	3,6	;RP1=0, select bank1
   998  0FC8  00B3               	movwf	(_LDR+3)^(0+128)
   999  0FC9  0876               	movf	?___fltol+2,w
  1000  0FCA  00B2               	movwf	(_LDR+2)^(0+128)
  1001  0FCB  0875               	movf	?___fltol+1,w
  1002  0FCC  00B1               	movwf	(_LDR+1)^(0+128)
  1003  0FCD  0874               	movf	?___fltol,w
  1004  0FCE  00B0               	movwf	_LDR^(0+128)
  1005  0FCF                     l2369:
  1006                           
  1007                           ;Slave_1_main.c: 54:         Lcd_Set_Cursor(2,1);
  1008  0FCF  1283               	bcf	3,5	;RP0=0, select bank0
  1009  0FD0  1303               	bcf	3,6	;RP1=0, select bank0
  1010  0FD1  01A0               	clrf	Lcd_Set_Cursor@b
  1011  0FD2  0AA0               	incf	Lcd_Set_Cursor@b,f
  1012  0FD3  3002               	movlw	2
  1013  0FD4  120A  158A  2584  120A  158A  	fcall	_Lcd_Set_Cursor
  1014  0FD9                     l2371:
  1015                           
  1016                           ;Slave_1_main.c: 55:         Lcd_Write_Char(an_sun);
  1017  0FD9  1283               	bcf	3,5	;RP0=0, select bank0
  1018  0FDA  1303               	bcf	3,6	;RP1=0, select bank0
  1019  0FDB  086C               	movf	_an_sun+3,w
  1020  0FDC  00F7               	movwf	___fltol@f1+3
  1021  0FDD  086B               	movf	_an_sun+2,w
  1022  0FDE  00F6               	movwf	___fltol@f1+2
  1023  0FDF  086A               	movf	_an_sun+1,w
  1024  0FE0  00F5               	movwf	___fltol@f1+1
  1025  0FE1  0869               	movf	_an_sun,w
  1026  0FE2  00F4               	movwf	___fltol@f1
  1027  0FE3  120A  158A  25DC  120A  158A  	fcall	___fltol
  1028  0FE8  0874               	movf	?___fltol,w
  1029  0FE9  120A  158A  2446  120A  158A  	fcall	_Lcd_Write_Char
  1030  0FEE                     l2373:
  1031                           
  1032                           ;Slave_1_main.c: 56:         _delay((unsigned long)((500)*(8000000/4000.0)));
  1033  0FEE  3006               	movlw	6
  1034  0FEF  1283               	bcf	3,5	;RP0=0, select bank0
  1035  0FF0  1303               	bcf	3,6	;RP1=0, select bank0
  1036  0FF1  00E8               	movwf	??_main+2
  1037  0FF2  3013               	movlw	19
  1038  0FF3  00E7               	movwf	??_main+1
  1039  0FF4  30AD               	movlw	173
  1040  0FF5  00E6               	movwf	??_main
  1041  0FF6                     u3097:
  1042  0FF6  0BE6               	decfsz	??_main,f
  1043  0FF7  2FF6               	goto	u3097
  1044  0FF8  0BE7               	decfsz	??_main+1,f
  1045  0FF9  2FF6               	goto	u3097
  1046  0FFA  0BE8               	decfsz	??_main+2,f
  1047  0FFB  2FF6               	goto	u3097
  1048  0FFC  2F36               	goto	l2365
  1049  0FFD  120A  118A  280C   	ljmp	start
  1050  1000                     __end_of_main:
  1051                           
  1052                           	psect	text1
  1053  0D08                     __ptext1:	
  1054 ;; *************** function _initSETUP *****************
  1055 ;; Defined at:
  1056 ;;		line 71 in file "Slave_1_main.c"
  1057 ;; Parameters:    Size  Location     Type
  1058 ;;		None
  1059 ;; Auto vars:     Size  Location     Type
  1060 ;;		None
  1061 ;; Return value:  Size  Location     Type
  1062 ;;                  1    wreg      void 
  1063 ;; Registers used:
  1064 ;;		wreg, status,2, status,0
  1065 ;; Tracked objects:
  1066 ;;		On entry : 0/0
  1067 ;;		On exit  : 0/0
  1068 ;;		Unchanged: 0/0
  1069 ;; Data sizes:     COMMON   BANK0   BANK1   BANK3   BANK2
  1070 ;;      Params:         0       0       0       0       0
  1071 ;;      Locals:         0       0       0       0       0
  1072 ;;      Temps:          1       0       0       0       0
  1073 ;;      Totals:         1       0       0       0       0
  1074 ;;Total ram usage:        1 bytes
  1075 ;; Hardware stack levels used: 1
  1076 ;; Hardware stack levels required when called: 1
  1077 ;; This function calls:
  1078 ;;		Nothing
  1079 ;; This function is called by:
  1080 ;;		_main
  1081 ;; This function uses a non-reentrant model
  1082 ;;
  1083                           
  1084                           
  1085                           ;psect for function _initSETUP
  1086  0D08                     _initSETUP:
  1087  0D08                     l1815:	
  1088                           ;incstack = 0
  1089                           ; Regs used in _initSETUP: [wreg+status,2+status,0]
  1090                           
  1091                           
  1092                           ;Slave_1_main.c: 72:     TRISA = 0b00000001;
  1093  0D08  3001               	movlw	1
  1094  0D09  1683               	bsf	3,5	;RP0=1, select bank1
  1095  0D0A  1303               	bcf	3,6	;RP1=0, select bank1
  1096  0D0B  0085               	movwf	5	;volatile
  1097  0D0C                     l1817:
  1098                           
  1099                           ;Slave_1_main.c: 73:     TRISB = 0;
  1100  0D0C  0186               	clrf	6	;volatile
  1101  0D0D                     l1819:
  1102                           
  1103                           ;Slave_1_main.c: 74:     TRISC = 0;
  1104  0D0D  0187               	clrf	7	;volatile
  1105  0D0E                     l1821:
  1106                           
  1107                           ;Slave_1_main.c: 75:     TRISD = 0;
  1108  0D0E  0188               	clrf	8	;volatile
  1109  0D0F                     l1823:
  1110                           
  1111                           ;Slave_1_main.c: 76:     TRISE = 0;
  1112  0D0F  0189               	clrf	9	;volatile
  1113  0D10                     l1825:
  1114                           
  1115                           ;Slave_1_main.c: 77:     PORTE = 0;
  1116  0D10  1283               	bcf	3,5	;RP0=0, select bank0
  1117  0D11  1303               	bcf	3,6	;RP1=0, select bank0
  1118  0D12  0189               	clrf	9	;volatile
  1119  0D13                     l1827:
  1120                           
  1121                           ;Slave_1_main.c: 78:     PORTA = 0;
  1122  0D13  0185               	clrf	5	;volatile
  1123  0D14                     l1829:
  1124                           
  1125                           ;Slave_1_main.c: 79:     PORTB = 0;
  1126  0D14  0186               	clrf	6	;volatile
  1127  0D15                     l1831:
  1128                           
  1129                           ;Slave_1_main.c: 80:     PORTC = 0;
  1130  0D15  0187               	clrf	7	;volatile
  1131  0D16                     l1833:
  1132                           
  1133                           ;Slave_1_main.c: 81:     PORTD = 0;
  1134  0D16  0188               	clrf	8	;volatile
  1135  0D17                     l1835:
  1136                           
  1137                           ;Slave_1_main.c: 82:     ANSEL = 0b00000001;
  1138  0D17  3001               	movlw	1
  1139  0D18  1683               	bsf	3,5	;RP0=1, select bank3
  1140  0D19  1703               	bsf	3,6	;RP1=1, select bank3
  1141  0D1A  0088               	movwf	8	;volatile
  1142                           
  1143                           ;Slave_1_main.c: 83:     ANSELH = 0;
  1144  0D1B  0189               	clrf	9	;volatile
  1145  0D1C                     l1837:
  1146                           
  1147                           ;Slave_1_main.c: 84:     OSCCONbits.IRCF2 = 1;
  1148  0D1C  1683               	bsf	3,5	;RP0=1, select bank1
  1149  0D1D  1303               	bcf	3,6	;RP1=0, select bank1
  1150  0D1E  170F               	bsf	15,6	;volatile
  1151  0D1F                     l1839:
  1152                           
  1153                           ;Slave_1_main.c: 85:     OSCCONbits.IRCF1 = 1;
  1154  0D1F  168F               	bsf	15,5	;volatile
  1155  0D20                     l1841:
  1156                           
  1157                           ;Slave_1_main.c: 86:     OSCCONbits.IRCF0 = 1;
  1158  0D20  160F               	bsf	15,4	;volatile
  1159  0D21                     l1843:
  1160                           
  1161                           ;Slave_1_main.c: 87:     OSCCONbits.SCS = 1;
  1162  0D21  140F               	bsf	15,0	;volatile
  1163  0D22                     l1845:
  1164                           
  1165                           ;Slave_1_main.c: 89:     ADCON1bits.ADFM = 0;
  1166  0D22  139F               	bcf	31,7	;volatile
  1167  0D23                     l1847:
  1168                           
  1169                           ;Slave_1_main.c: 90:     ADCON1bits.VCFG0 = 0;
  1170  0D23  121F               	bcf	31,4	;volatile
  1171  0D24                     l1849:
  1172                           
  1173                           ;Slave_1_main.c: 91:     ADCON1bits.VCFG1 = 0;
  1174  0D24  129F               	bcf	31,5	;volatile
  1175  0D25                     l1851:
  1176                           
  1177                           ;Slave_1_main.c: 92:     ADCON0bits.ADCS = 0b10;
  1178  0D25  1283               	bcf	3,5	;RP0=0, select bank0
  1179  0D26  1303               	bcf	3,6	;RP1=0, select bank0
  1180  0D27  081F               	movf	31,w	;volatile
  1181  0D28  393F               	andlw	-193
  1182  0D29  3880               	iorlw	128
  1183  0D2A  009F               	movwf	31	;volatile
  1184  0D2B                     l1853:
  1185                           
  1186                           ;Slave_1_main.c: 93:     ADCON0bits.CHS = 0;
  1187  0D2B  30C3               	movlw	-61
  1188  0D2C  059F               	andwf	31,f	;volatile
  1189  0D2D                     l1855:
  1190                           
  1191                           ;Slave_1_main.c: 94:     ADCON0bits.ADON = 1;
  1192  0D2D  141F               	bsf	31,0	;volatile
  1193  0D2E                     l1857:
  1194                           
  1195                           ;Slave_1_main.c: 95:     _delay((unsigned long)((50)*(8000000/4000000.0)));
  1196  0D2E  3021               	movlw	33
  1197  0D2F  00F4               	movwf	??_initSETUP
  1198  0D30                     u3107:
  1199  0D30  0BF4               	decfsz	??_initSETUP,f
  1200  0D31  2D30               	goto	u3107
  1201  0D32                     l1859:
  1202                           
  1203                           ;Slave_1_main.c: 96:     ADCON0bits.GO = 1;
  1204  0D32  1283               	bcf	3,5	;RP0=0, select bank0
  1205  0D33  1303               	bcf	3,6	;RP1=0, select bank0
  1206  0D34  149F               	bsf	31,1	;volatile
  1207  0D35                     l1861:
  1208                           
  1209                           ;Slave_1_main.c: 98:     INTCONbits.GIE = 1;
  1210  0D35  178B               	bsf	11,7	;volatile
  1211  0D36                     l1863:
  1212                           
  1213                           ;Slave_1_main.c: 99:     INTCONbits.PEIE =1;
  1214  0D36  170B               	bsf	11,6	;volatile
  1215  0D37                     l173:
  1216  0D37  0008               	return
  1217  0D38                     __end_of_initSETUP:
  1218                           
  1219                           	psect	text2
  1220  0E58                     __ptext2:	
  1221 ;; *************** function ___xxtofl *****************
  1222 ;; Defined at:
  1223 ;;		line 10 in file "C:\Program Files\Microchip\xc8\v2.32\pic\sources\c90\common\xxtofl.c"
  1224 ;; Parameters:    Size  Location     Type
  1225 ;;  sign            1    wreg     unsigned char 
  1226 ;;  val             4    4[COMMON] long 
  1227 ;; Auto vars:     Size  Location     Type
  1228 ;;  sign            1    4[BANK0 ] unsigned char 
  1229 ;;  arg             4    6[BANK0 ] unsigned long 
  1230 ;;  exp             1    5[BANK0 ] unsigned char 
  1231 ;; Return value:  Size  Location     Type
  1232 ;;                  4    4[COMMON] unsigned char 
  1233 ;; Registers used:
  1234 ;;		wreg, status,2, status,0
  1235 ;; Tracked objects:
  1236 ;;		On entry : 0/0
  1237 ;;		On exit  : 0/0
  1238 ;;		Unchanged: 0/0
  1239 ;; Data sizes:     COMMON   BANK0   BANK1   BANK3   BANK2
  1240 ;;      Params:         4       0       0       0       0
  1241 ;;      Locals:         0       6       0       0       0
  1242 ;;      Temps:          0       4       0       0       0
  1243 ;;      Totals:         4      10       0       0       0
  1244 ;;Total ram usage:       14 bytes
  1245 ;; Hardware stack levels used: 1
  1246 ;; Hardware stack levels required when called: 1
  1247 ;; This function calls:
  1248 ;;		Nothing
  1249 ;; This function is called by:
  1250 ;;		_main
  1251 ;; This function uses a non-reentrant model
  1252 ;;
  1253                           
  1254                           
  1255                           ;psect for function ___xxtofl
  1256  0E58                     ___xxtofl:
  1257                           
  1258                           ;incstack = 0
  1259                           ; Regs used in ___xxtofl: [wreg+status,2+status,0]
  1260                           ;___xxtofl@sign stored from wreg
  1261  0E58  1283               	bcf	3,5	;RP0=0, select bank0
  1262  0E59  1303               	bcf	3,6	;RP1=0, select bank0
  1263  0E5A  00A4               	movwf	___xxtofl@sign
  1264  0E5B                     l2191:
  1265  0E5B  0824               	movf	___xxtofl@sign,w
  1266  0E5C  1903               	btfsc	3,2
  1267  0E5D  2E5F               	goto	u2801
  1268  0E5E  2E60               	goto	u2800
  1269  0E5F                     u2801:
  1270  0E5F  2E74               	goto	l2197
  1271  0E60                     u2800:
  1272  0E60                     l2193:
  1273  0E60  1FF7               	btfss	___xxtofl@val+3,7
  1274  0E61  2E63               	goto	u2811
  1275  0E62  2E64               	goto	u2810
  1276  0E63                     u2811:
  1277  0E63  2E74               	goto	l2197
  1278  0E64                     u2810:
  1279  0E64                     l2195:
  1280  0E64  0974               	comf	___xxtofl@val,w
  1281  0E65  00A6               	movwf	___xxtofl@arg
  1282  0E66  0975               	comf	___xxtofl@val+1,w
  1283  0E67  00A7               	movwf	___xxtofl@arg+1
  1284  0E68  0976               	comf	___xxtofl@val+2,w
  1285  0E69  00A8               	movwf	___xxtofl@arg+2
  1286  0E6A  0977               	comf	___xxtofl@val+3,w
  1287  0E6B  00A9               	movwf	___xxtofl@arg+3
  1288  0E6C  0AA6               	incf	___xxtofl@arg,f
  1289  0E6D  1903               	skipnz
  1290  0E6E  0AA7               	incf	___xxtofl@arg+1,f
  1291  0E6F  1903               	skipnz
  1292  0E70  0AA8               	incf	___xxtofl@arg+2,f
  1293  0E71  1903               	skipnz
  1294  0E72  0AA9               	incf	___xxtofl@arg+3,f
  1295  0E73  2E7C               	goto	l692
  1296  0E74                     l2197:
  1297  0E74  0877               	movf	___xxtofl@val+3,w
  1298  0E75  00A9               	movwf	___xxtofl@arg+3
  1299  0E76  0876               	movf	___xxtofl@val+2,w
  1300  0E77  00A8               	movwf	___xxtofl@arg+2
  1301  0E78  0875               	movf	___xxtofl@val+1,w
  1302  0E79  00A7               	movwf	___xxtofl@arg+1
  1303  0E7A  0874               	movf	___xxtofl@val,w
  1304  0E7B  00A6               	movwf	___xxtofl@arg
  1305  0E7C                     l692:
  1306  0E7C  0877               	movf	___xxtofl@val+3,w
  1307  0E7D  0476               	iorwf	___xxtofl@val+2,w
  1308  0E7E  0475               	iorwf	___xxtofl@val+1,w
  1309  0E7F  0474               	iorwf	___xxtofl@val,w
  1310  0E80  1D03               	skipz
  1311  0E81  2E83               	goto	u2821
  1312  0E82  2E84               	goto	u2820
  1313  0E83                     u2821:
  1314  0E83  2E8D               	goto	l2203
  1315  0E84                     u2820:
  1316  0E84                     l2199:
  1317  0E84  3000               	movlw	0
  1318  0E85  00F7               	movwf	?___xxtofl+3
  1319  0E86  3000               	movlw	0
  1320  0E87  00F6               	movwf	?___xxtofl+2
  1321  0E88  3000               	movlw	0
  1322  0E89  00F5               	movwf	?___xxtofl+1
  1323  0E8A  3000               	movlw	0
  1324  0E8B  00F4               	movwf	?___xxtofl
  1325  0E8C  2F13               	goto	l694
  1326  0E8D                     l2203:
  1327  0E8D  3096               	movlw	150
  1328  0E8E  00A0               	movwf	??___xxtofl
  1329  0E8F  0820               	movf	??___xxtofl,w
  1330  0E90  00A5               	movwf	___xxtofl@exp
  1331  0E91  2E9F               	goto	l2207
  1332  0E92                     l2205:
  1333  0E92  3001               	movlw	1
  1334  0E93  00A0               	movwf	??___xxtofl
  1335  0E94  0820               	movf	??___xxtofl,w
  1336  0E95  07A5               	addwf	___xxtofl@exp,f
  1337  0E96  3001               	movlw	1
  1338  0E97                     u2835:
  1339  0E97  1003               	clrc
  1340  0E98  0CA9               	rrf	___xxtofl@arg+3,f
  1341  0E99  0CA8               	rrf	___xxtofl@arg+2,f
  1342  0E9A  0CA7               	rrf	___xxtofl@arg+1,f
  1343  0E9B  0CA6               	rrf	___xxtofl@arg,f
  1344  0E9C  3EFF               	addlw	-1
  1345  0E9D  1D03               	skipz
  1346  0E9E  2E97               	goto	u2835
  1347  0E9F                     l2207:
  1348  0E9F  30FE               	movlw	254
  1349  0EA0  0529               	andwf	___xxtofl@arg+3,w
  1350  0EA1  1D03               	btfss	3,2
  1351  0EA2  2EA4               	goto	u2841
  1352  0EA3  2EA5               	goto	u2840
  1353  0EA4                     u2841:
  1354  0EA4  2E92               	goto	l2205
  1355  0EA5                     u2840:
  1356  0EA5  2EC1               	goto	l698
  1357  0EA6                     l2209:
  1358  0EA6  3001               	movlw	1
  1359  0EA7  00A0               	movwf	??___xxtofl
  1360  0EA8  0820               	movf	??___xxtofl,w
  1361  0EA9  07A5               	addwf	___xxtofl@exp,f
  1362  0EAA                     l2211:
  1363  0EAA  3001               	movlw	1
  1364  0EAB  07A6               	addwf	___xxtofl@arg,f
  1365  0EAC  3000               	movlw	0
  1366  0EAD  1803               	skipnc
  1367  0EAE  3001               	movlw	1
  1368  0EAF  07A7               	addwf	___xxtofl@arg+1,f
  1369  0EB0  3000               	movlw	0
  1370  0EB1  1803               	skipnc
  1371  0EB2  3001               	movlw	1
  1372  0EB3  07A8               	addwf	___xxtofl@arg+2,f
  1373  0EB4  3000               	movlw	0
  1374  0EB5  1803               	skipnc
  1375  0EB6  3001               	movlw	1
  1376  0EB7  07A9               	addwf	___xxtofl@arg+3,f
  1377  0EB8                     l2213:
  1378  0EB8  3001               	movlw	1
  1379  0EB9                     u2855:
  1380  0EB9  1003               	clrc
  1381  0EBA  0CA9               	rrf	___xxtofl@arg+3,f
  1382  0EBB  0CA8               	rrf	___xxtofl@arg+2,f
  1383  0EBC  0CA7               	rrf	___xxtofl@arg+1,f
  1384  0EBD  0CA6               	rrf	___xxtofl@arg,f
  1385  0EBE  3EFF               	addlw	-1
  1386  0EBF  1D03               	skipz
  1387  0EC0  2EB9               	goto	u2855
  1388  0EC1                     l698:
  1389  0EC1  30FF               	movlw	255
  1390  0EC2  0529               	andwf	___xxtofl@arg+3,w
  1391  0EC3  1D03               	btfss	3,2
  1392  0EC4  2EC6               	goto	u2861
  1393  0EC5  2EC7               	goto	u2860
  1394  0EC6                     u2861:
  1395  0EC6  2EA6               	goto	l2209
  1396  0EC7                     u2860:
  1397  0EC7  2ED3               	goto	l2217
  1398  0EC8                     l2215:
  1399  0EC8  3001               	movlw	1
  1400  0EC9  02A5               	subwf	___xxtofl@exp,f
  1401  0ECA  3001               	movlw	1
  1402  0ECB  00A0               	movwf	??___xxtofl
  1403  0ECC                     u2875:
  1404  0ECC  1003               	clrc
  1405  0ECD  0DA6               	rlf	___xxtofl@arg,f
  1406  0ECE  0DA7               	rlf	___xxtofl@arg+1,f
  1407  0ECF  0DA8               	rlf	___xxtofl@arg+2,f
  1408  0ED0  0DA9               	rlf	___xxtofl@arg+3,f
  1409  0ED1  0BA0               	decfsz	??___xxtofl,f
  1410  0ED2  2ECC               	goto	u2875
  1411  0ED3                     l2217:
  1412  0ED3  1BA8               	btfsc	___xxtofl@arg+2,7
  1413  0ED4  2ED6               	goto	u2881
  1414  0ED5  2ED7               	goto	u2880
  1415  0ED6                     u2881:
  1416  0ED6  2EDD               	goto	l705
  1417  0ED7                     u2880:
  1418  0ED7                     l2219:
  1419  0ED7  3002               	movlw	2
  1420  0ED8  0225               	subwf	___xxtofl@exp,w
  1421  0ED9  1803               	skipnc
  1422  0EDA  2EDC               	goto	u2891
  1423  0EDB  2EDD               	goto	u2890
  1424  0EDC                     u2891:
  1425  0EDC  2EC8               	goto	l2215
  1426  0EDD                     u2890:
  1427  0EDD                     l705:
  1428  0EDD  1825               	btfsc	___xxtofl@exp,0
  1429  0EDE  2EE0               	goto	u2901
  1430  0EDF  2EE1               	goto	u2900
  1431  0EE0                     u2901:
  1432  0EE0  2EE9               	goto	l706
  1433  0EE1                     u2900:
  1434  0EE1                     l2221:
  1435  0EE1  30FF               	movlw	255
  1436  0EE2  05A6               	andwf	___xxtofl@arg,f
  1437  0EE3  30FF               	movlw	255
  1438  0EE4  05A7               	andwf	___xxtofl@arg+1,f
  1439  0EE5  307F               	movlw	127
  1440  0EE6  05A8               	andwf	___xxtofl@arg+2,f
  1441  0EE7  30FF               	movlw	255
  1442  0EE8  05A9               	andwf	___xxtofl@arg+3,f
  1443  0EE9                     l706:
  1444  0EE9  1003               	clrc
  1445  0EEA  0CA5               	rrf	___xxtofl@exp,f
  1446  0EEB                     l2223:
  1447  0EEB  0825               	movf	___xxtofl@exp,w
  1448  0EEC  00A0               	movwf	??___xxtofl
  1449  0EED  01A1               	clrf	??___xxtofl+1
  1450  0EEE  01A2               	clrf	??___xxtofl+2
  1451  0EEF  01A3               	clrf	??___xxtofl+3
  1452  0EF0  3018               	movlw	24
  1453  0EF1                     u2915:
  1454  0EF1  1003               	clrc
  1455  0EF2  0DA0               	rlf	??___xxtofl,f
  1456  0EF3  0DA1               	rlf	??___xxtofl+1,f
  1457  0EF4  0DA2               	rlf	??___xxtofl+2,f
  1458  0EF5  0DA3               	rlf	??___xxtofl+3,f
  1459  0EF6                     u2910:
  1460  0EF6  3EFF               	addlw	-1
  1461  0EF7  1D03               	skipz
  1462  0EF8  2EF1               	goto	u2915
  1463  0EF9  0820               	movf	??___xxtofl,w
  1464  0EFA  04A6               	iorwf	___xxtofl@arg,f
  1465  0EFB  0821               	movf	??___xxtofl+1,w
  1466  0EFC  04A7               	iorwf	___xxtofl@arg+1,f
  1467  0EFD  0822               	movf	??___xxtofl+2,w
  1468  0EFE  04A8               	iorwf	___xxtofl@arg+2,f
  1469  0EFF  0823               	movf	??___xxtofl+3,w
  1470  0F00  04A9               	iorwf	___xxtofl@arg+3,f
  1471  0F01                     l2225:
  1472  0F01  0824               	movf	___xxtofl@sign,w
  1473  0F02  1903               	btfsc	3,2
  1474  0F03  2F05               	goto	u2921
  1475  0F04  2F06               	goto	u2920
  1476  0F05                     u2921:
  1477  0F05  2F0B               	goto	l2231
  1478  0F06                     u2920:
  1479  0F06                     l2227:
  1480  0F06  1FF7               	btfss	___xxtofl@val+3,7
  1481  0F07  2F09               	goto	u2931
  1482  0F08  2F0A               	goto	u2930
  1483  0F09                     u2931:
  1484  0F09  2F0B               	goto	l2231
  1485  0F0A                     u2930:
  1486  0F0A                     l2229:
  1487  0F0A  17A9               	bsf	___xxtofl@arg+3,7
  1488  0F0B                     l2231:
  1489  0F0B  0829               	movf	___xxtofl@arg+3,w
  1490  0F0C  00F7               	movwf	?___xxtofl+3
  1491  0F0D  0828               	movf	___xxtofl@arg+2,w
  1492  0F0E  00F6               	movwf	?___xxtofl+2
  1493  0F0F  0827               	movf	___xxtofl@arg+1,w
  1494  0F10  00F5               	movwf	?___xxtofl+1
  1495  0F11  0826               	movf	___xxtofl@arg,w
  1496  0F12  00F4               	movwf	?___xxtofl
  1497  0F13                     l694:
  1498  0F13  0008               	return
  1499  0F14                     __end_of___xxtofl:
  1500                           
  1501                           	psect	text3
  1502  0DDC                     __ptext3:	
  1503 ;; *************** function ___fltol *****************
  1504 ;; Defined at:
  1505 ;;		line 43 in file "C:\Program Files\Microchip\xc8\v2.32\pic\sources\c90\common\fltol.c"
  1506 ;; Parameters:    Size  Location     Type
  1507 ;;  f1              4    4[COMMON] unsigned char 
  1508 ;; Auto vars:     Size  Location     Type
  1509 ;;  exp1            1    6[BANK0 ] unsigned char 
  1510 ;;  sign1           1    5[BANK0 ] unsigned char 
  1511 ;; Return value:  Size  Location     Type
  1512 ;;                  4    4[COMMON] long 
  1513 ;; Registers used:
  1514 ;;		wreg, status,2, status,0
  1515 ;; Tracked objects:
  1516 ;;		On entry : 0/0
  1517 ;;		On exit  : 0/0
  1518 ;;		Unchanged: 0/0
  1519 ;; Data sizes:     COMMON   BANK0   BANK1   BANK3   BANK2
  1520 ;;      Params:         4       0       0       0       0
  1521 ;;      Locals:         0       2       0       0       0
  1522 ;;      Temps:          0       5       0       0       0
  1523 ;;      Totals:         4       7       0       0       0
  1524 ;;Total ram usage:       11 bytes
  1525 ;; Hardware stack levels used: 1
  1526 ;; Hardware stack levels required when called: 1
  1527 ;; This function calls:
  1528 ;;		Nothing
  1529 ;; This function is called by:
  1530 ;;		_main
  1531 ;; This function uses a non-reentrant model
  1532 ;;
  1533                           
  1534                           
  1535                           ;psect for function ___fltol
  1536  0DDC                     ___fltol:
  1537  0DDC                     l2319:	
  1538                           ;incstack = 0
  1539                           ; Regs used in ___fltol: [wreg+status,2+status,0]
  1540                           
  1541  0DDC  1003               	clrc
  1542  0DDD  0D76               	rlf	___fltol@f1+2,w
  1543  0DDE  0D77               	rlf	___fltol@f1+3,w
  1544  0DDF  1283               	bcf	3,5	;RP0=0, select bank0
  1545  0DE0  1303               	bcf	3,6	;RP1=0, select bank0
  1546  0DE1  00A0               	movwf	??___fltol
  1547  0DE2  0820               	movf	??___fltol,w
  1548  0DE3  00A6               	movwf	___fltol@exp1
  1549  0DE4  0826               	movf	___fltol@exp1,w
  1550  0DE5  1D03               	btfss	3,2
  1551  0DE6  2DE8               	goto	u2991
  1552  0DE7  2DE9               	goto	u2990
  1553  0DE8                     u2991:
  1554  0DE8  2DF2               	goto	l2325
  1555  0DE9                     u2990:
  1556  0DE9                     l2321:
  1557  0DE9  3000               	movlw	0
  1558  0DEA  00F7               	movwf	?___fltol+3
  1559  0DEB  3000               	movlw	0
  1560  0DEC  00F6               	movwf	?___fltol+2
  1561  0DED  3000               	movlw	0
  1562  0DEE  00F5               	movwf	?___fltol+1
  1563  0DEF  3000               	movlw	0
  1564  0DF0  00F4               	movwf	?___fltol
  1565  0DF1  2E57               	goto	l445
  1566  0DF2                     l2325:
  1567  0DF2  0874               	movf	___fltol@f1,w
  1568  0DF3  00A0               	movwf	??___fltol
  1569  0DF4  0875               	movf	___fltol@f1+1,w
  1570  0DF5  00A1               	movwf	??___fltol+1
  1571  0DF6  0876               	movf	___fltol@f1+2,w
  1572  0DF7  00A2               	movwf	??___fltol+2
  1573  0DF8  0877               	movf	___fltol@f1+3,w
  1574  0DF9  00A3               	movwf	??___fltol+3
  1575  0DFA  301F               	movlw	31
  1576  0DFB                     u3005:
  1577  0DFB  1003               	clrc
  1578  0DFC  0CA3               	rrf	??___fltol+3,f
  1579  0DFD  0CA2               	rrf	??___fltol+2,f
  1580  0DFE  0CA1               	rrf	??___fltol+1,f
  1581  0DFF  0CA0               	rrf	??___fltol,f
  1582  0E00                     u3000:
  1583  0E00  3EFF               	addlw	-1
  1584  0E01  1D03               	skipz
  1585  0E02  2DFB               	goto	u3005
  1586  0E03  0820               	movf	??___fltol,w
  1587  0E04  00A4               	movwf	??___fltol+4
  1588  0E05  0824               	movf	??___fltol+4,w
  1589  0E06  00A5               	movwf	___fltol@sign1
  1590  0E07                     l2327:
  1591  0E07  17F6               	bsf	___fltol@f1+2,7
  1592  0E08                     l2329:
  1593  0E08  30FF               	movlw	255
  1594  0E09  05F4               	andwf	___fltol@f1,f
  1595  0E0A  30FF               	movlw	255
  1596  0E0B  05F5               	andwf	___fltol@f1+1,f
  1597  0E0C  30FF               	movlw	255
  1598  0E0D  05F6               	andwf	___fltol@f1+2,f
  1599  0E0E  3000               	movlw	0
  1600  0E0F  05F7               	andwf	___fltol@f1+3,f
  1601  0E10                     l2331:
  1602  0E10  3096               	movlw	150
  1603  0E11  02A6               	subwf	___fltol@exp1,f
  1604  0E12                     l2333:
  1605  0E12  1FA6               	btfss	___fltol@exp1,7
  1606  0E13  2E15               	goto	u3011
  1607  0E14  2E16               	goto	u3010
  1608  0E15                     u3011:
  1609  0E15  2E30               	goto	l2343
  1610  0E16                     u3010:
  1611  0E16                     l2335:
  1612  0E16  0826               	movf	___fltol@exp1,w
  1613  0E17  3A80               	xorlw	128
  1614  0E18  3E97               	addlw	151
  1615  0E19  1803               	skipnc
  1616  0E1A  2E1C               	goto	u3021
  1617  0E1B  2E1D               	goto	u3020
  1618  0E1C                     u3021:
  1619  0E1C  2E1E               	goto	l2341
  1620  0E1D                     u3020:
  1621  0E1D  2DE9               	goto	l2321
  1622  0E1E                     l2341:
  1623  0E1E  3001               	movlw	1
  1624  0E1F                     u3035:
  1625  0E1F  1003               	clrc
  1626  0E20  0CF7               	rrf	___fltol@f1+3,f
  1627  0E21  0CF6               	rrf	___fltol@f1+2,f
  1628  0E22  0CF5               	rrf	___fltol@f1+1,f
  1629  0E23  0CF4               	rrf	___fltol@f1,f
  1630  0E24  3EFF               	addlw	-1
  1631  0E25  1D03               	skipz
  1632  0E26  2E1F               	goto	u3035
  1633  0E27  3001               	movlw	1
  1634  0E28  00A0               	movwf	??___fltol
  1635  0E29  0820               	movf	??___fltol,w
  1636  0E2A  07A6               	addwf	___fltol@exp1,f
  1637  0E2B  1D03               	btfss	3,2
  1638  0E2C  2E2E               	goto	u3041
  1639  0E2D  2E2F               	goto	u3040
  1640  0E2E                     u3041:
  1641  0E2E  2E1E               	goto	l2341
  1642  0E2F                     u3040:
  1643  0E2F  2E47               	goto	l2351
  1644  0E30                     l2343:
  1645  0E30  3020               	movlw	32
  1646  0E31  0226               	subwf	___fltol@exp1,w
  1647  0E32  1C03               	skipc
  1648  0E33  2E35               	goto	u3051
  1649  0E34  2E36               	goto	u3050
  1650  0E35                     u3051:
  1651  0E35  2E42               	goto	l452
  1652  0E36                     u3050:
  1653  0E36  2DE9               	goto	l2321
  1654  0E37                     l2349:
  1655  0E37  3001               	movlw	1
  1656  0E38  00A0               	movwf	??___fltol
  1657  0E39                     u3065:
  1658  0E39  1003               	clrc
  1659  0E3A  0DF4               	rlf	___fltol@f1,f
  1660  0E3B  0DF5               	rlf	___fltol@f1+1,f
  1661  0E3C  0DF6               	rlf	___fltol@f1+2,f
  1662  0E3D  0DF7               	rlf	___fltol@f1+3,f
  1663  0E3E  0BA0               	decfsz	??___fltol,f
  1664  0E3F  2E39               	goto	u3065
  1665  0E40  3001               	movlw	1
  1666  0E41  02A6               	subwf	___fltol@exp1,f
  1667  0E42                     l452:
  1668  0E42  0826               	movf	___fltol@exp1,w
  1669  0E43  1D03               	btfss	3,2
  1670  0E44  2E46               	goto	u3071
  1671  0E45  2E47               	goto	u3070
  1672  0E46                     u3071:
  1673  0E46  2E37               	goto	l2349
  1674  0E47                     u3070:
  1675  0E47                     l2351:
  1676  0E47  0825               	movf	___fltol@sign1,w
  1677  0E48  1903               	btfsc	3,2
  1678  0E49  2E4B               	goto	u3081
  1679  0E4A  2E4C               	goto	u3080
  1680  0E4B                     u3081:
  1681  0E4B  2E57               	goto	l455
  1682  0E4C                     u3080:
  1683  0E4C                     l2353:
  1684  0E4C  09F4               	comf	___fltol@f1,f
  1685  0E4D  09F5               	comf	___fltol@f1+1,f
  1686  0E4E  09F6               	comf	___fltol@f1+2,f
  1687  0E4F  09F7               	comf	___fltol@f1+3,f
  1688  0E50  0AF4               	incf	___fltol@f1,f
  1689  0E51  1903               	skipnz
  1690  0E52  0AF5               	incf	___fltol@f1+1,f
  1691  0E53  1903               	skipnz
  1692  0E54  0AF6               	incf	___fltol@f1+2,f
  1693  0E55  1903               	skipnz
  1694  0E56  0AF7               	incf	___fltol@f1+3,f
  1695  0E57                     l455:
  1696  0E57                     l445:
  1697  0E57  0008               	return
  1698  0E58                     __end_of___fltol:
  1699                           
  1700                           	psect	text4
  1701  0C64                     __ptext4:	
  1702 ;; *************** function ___flsub *****************
  1703 ;; Defined at:
  1704 ;;		line 242 in file "C:\Program Files\Microchip\xc8\v2.32\pic\sources\c90\common\sprcadd.c"
  1705 ;; Parameters:    Size  Location     Type
  1706 ;;  a               4   36[BANK0 ] long 
  1707 ;;  b               4   40[BANK0 ] long 
  1708 ;; Auto vars:     Size  Location     Type
  1709 ;;		None
  1710 ;; Return value:  Size  Location     Type
  1711 ;;                  4   36[BANK0 ] long 
  1712 ;; Registers used:
  1713 ;;		wreg, status,2, status,0, btemp+1, pclath, cstack
  1714 ;; Tracked objects:
  1715 ;;		On entry : 0/0
  1716 ;;		On exit  : 0/0
  1717 ;;		Unchanged: 0/0
  1718 ;; Data sizes:     COMMON   BANK0   BANK1   BANK3   BANK2
  1719 ;;      Params:         0       8       0       0       0
  1720 ;;      Locals:         0       0       0       0       0
  1721 ;;      Temps:          0       0       0       0       0
  1722 ;;      Totals:         0       8       0       0       0
  1723 ;;Total ram usage:        8 bytes
  1724 ;; Hardware stack levels used: 1
  1725 ;; Hardware stack levels required when called: 2
  1726 ;; This function calls:
  1727 ;;		___fladd
  1728 ;; This function is called by:
  1729 ;;		_main
  1730 ;; This function uses a non-reentrant model
  1731 ;;
  1732                           
  1733                           
  1734                           ;psect for function ___flsub
  1735  0C64                     ___flsub:
  1736  0C64                     l1903:	
  1737                           ;incstack = 0
  1738                           ; Regs used in ___flsub: [wreg+status,2+status,0+btemp+1+pclath+cstack]
  1739                           
  1740  0C64  3080               	movlw	128
  1741  0C65  1283               	bcf	3,5	;RP0=0, select bank0
  1742  0C66  1303               	bcf	3,6	;RP1=0, select bank0
  1743  0C67  06C7               	xorwf	___flsub@a+3,f
  1744  0C68                     l1905:
  1745  0C68  084B               	movf	___flsub@b+3,w
  1746  0C69  00A3               	movwf	___fladd@b+3
  1747  0C6A  084A               	movf	___flsub@b+2,w
  1748  0C6B  00A2               	movwf	___fladd@b+2
  1749  0C6C  0849               	movf	___flsub@b+1,w
  1750  0C6D  00A1               	movwf	___fladd@b+1
  1751  0C6E  0848               	movf	___flsub@b,w
  1752  0C6F  00A0               	movwf	___fladd@b
  1753  0C70  0847               	movf	___flsub@a+3,w
  1754  0C71  00A7               	movwf	___fladd@a+3
  1755  0C72  0846               	movf	___flsub@a+2,w
  1756  0C73  00A6               	movwf	___fladd@a+2
  1757  0C74  0845               	movf	___flsub@a+1,w
  1758  0C75  00A5               	movwf	___fladd@a+1
  1759  0C76  0844               	movf	___flsub@a,w
  1760  0C77  00A4               	movwf	___fladd@a
  1761  0C78  120A  118A  2385  120A  158A  	fcall	___fladd
  1762  0C7D  1283               	bcf	3,5	;RP0=0, select bank0
  1763  0C7E  1303               	bcf	3,6	;RP1=0, select bank0
  1764  0C7F  0823               	movf	?___fladd+3,w
  1765  0C80  00C7               	movwf	?___flsub+3
  1766  0C81  0822               	movf	?___fladd+2,w
  1767  0C82  00C6               	movwf	?___flsub+2
  1768  0C83  0821               	movf	?___fladd+1,w
  1769  0C84  00C5               	movwf	?___flsub+1
  1770  0C85  0820               	movf	?___fladd,w
  1771  0C86  00C4               	movwf	?___flsub
  1772  0C87                     l598:
  1773  0C87  0008               	return
  1774  0C88                     __end_of___flsub:
  1775                           
  1776                           	psect	text5
  1777  0385                     __ptext5:	
  1778 ;; *************** function ___fladd *****************
  1779 ;; Defined at:
  1780 ;;		line 10 in file "C:\Program Files\Microchip\xc8\v2.32\pic\sources\c90\common\sprcadd.c"
  1781 ;; Parameters:    Size  Location     Type
  1782 ;;  b               4    0[BANK0 ] long 
  1783 ;;  a               4    4[BANK0 ] long 
  1784 ;; Auto vars:     Size  Location     Type
  1785 ;;  grs             1    7[COMMON] unsigned char 
  1786 ;;  bexp            1    6[COMMON] unsigned char 
  1787 ;;  aexp            1    5[COMMON] unsigned char 
  1788 ;;  signs           1    4[COMMON] unsigned char 
  1789 ;; Return value:  Size  Location     Type
  1790 ;;                  4    0[BANK0 ] unsigned char 
  1791 ;; Registers used:
  1792 ;;		wreg, status,2, status,0, btemp+1
  1793 ;; Tracked objects:
  1794 ;;		On entry : 0/0
  1795 ;;		On exit  : 0/0
  1796 ;;		Unchanged: 0/0
  1797 ;; Data sizes:     COMMON   BANK0   BANK1   BANK3   BANK2
  1798 ;;      Params:         0       8       0       0       0
  1799 ;;      Locals:         4       0       0       0       0
  1800 ;;      Temps:          0       8       0       0       0
  1801 ;;      Totals:         4      16       0       0       0
  1802 ;;Total ram usage:       20 bytes
  1803 ;; Hardware stack levels used: 1
  1804 ;; Hardware stack levels required when called: 1
  1805 ;; This function calls:
  1806 ;;		Nothing
  1807 ;; This function is called by:
  1808 ;;		___flsub
  1809 ;; This function uses a non-reentrant model
  1810 ;;
  1811                           
  1812                           
  1813                           ;psect for function ___fladd
  1814  0385                     ___fladd:
  1815  0385                     l1567:	
  1816                           ;incstack = 0
  1817                           ; Regs used in ___fladd: [wreg+status,2+status,0+btemp+1]
  1818                           
  1819  0385  1283               	bcf	3,5	;RP0=0, select bank0
  1820  0386  1303               	bcf	3,6	;RP1=0, select bank0
  1821  0387  0823               	movf	___fladd@b+3,w
  1822  0388  3980               	andlw	128
  1823  0389  00A8               	movwf	??___fladd
  1824  038A  0828               	movf	??___fladd,w
  1825  038B  00F4               	movwf	___fladd@signs
  1826  038C                     l1569:
  1827  038C  0823               	movf	___fladd@b+3,w
  1828  038D  00A8               	movwf	??___fladd
  1829  038E  0728               	addwf	??___fladd,w
  1830  038F  00A9               	movwf	??___fladd+1
  1831  0390  0829               	movf	??___fladd+1,w
  1832  0391  00F6               	movwf	___fladd@bexp
  1833  0392                     l1571:
  1834  0392  1FA2               	btfss	___fladd@b+2,7
  1835  0393  2B95               	goto	u1501
  1836  0394  2B96               	goto	u1500
  1837  0395                     u1501:
  1838  0395  2B97               	goto	l1575
  1839  0396                     u1500:
  1840  0396                     l1573:
  1841  0396  1476               	bsf	___fladd@bexp,0
  1842  0397                     l1575:
  1843  0397  0876               	movf	___fladd@bexp,w
  1844  0398  1903               	btfsc	3,2
  1845  0399  2B9B               	goto	u1511
  1846  039A  2B9C               	goto	u1510
  1847  039B                     u1511:
  1848  039B  2BAC               	goto	l1585
  1849  039C                     u1510:
  1850  039C                     l1577:
  1851  039C  0A76               	incf	___fladd@bexp,w
  1852  039D  1D03               	btfss	3,2
  1853  039E  2BA0               	goto	u1521
  1854  039F  2BA1               	goto	u1520
  1855  03A0                     u1521:
  1856  03A0  2BA9               	goto	l1581
  1857  03A1                     u1520:
  1858  03A1                     l1579:
  1859  03A1  3000               	movlw	0
  1860  03A2  00A3               	movwf	___fladd@b+3
  1861  03A3  3000               	movlw	0
  1862  03A4  00A2               	movwf	___fladd@b+2
  1863  03A5  3000               	movlw	0
  1864  03A6  00A1               	movwf	___fladd@b+1
  1865  03A7  3000               	movlw	0
  1866  03A8  00A0               	movwf	___fladd@b
  1867  03A9                     l1581:
  1868  03A9  17A2               	bsf	___fladd@b+2,7
  1869  03AA                     l1583:
  1870  03AA  01A3               	clrf	___fladd@b+3
  1871  03AB  2BB4               	goto	l1587
  1872  03AC                     l1585:
  1873  03AC  3000               	movlw	0
  1874  03AD  00A3               	movwf	___fladd@b+3
  1875  03AE  3000               	movlw	0
  1876  03AF  00A2               	movwf	___fladd@b+2
  1877  03B0  3000               	movlw	0
  1878  03B1  00A1               	movwf	___fladd@b+1
  1879  03B2  3000               	movlw	0
  1880  03B3  00A0               	movwf	___fladd@b
  1881  03B4                     l1587:
  1882  03B4  0827               	movf	___fladd@a+3,w
  1883  03B5  3980               	andlw	128
  1884  03B6  00A8               	movwf	??___fladd
  1885  03B7  0828               	movf	??___fladd,w
  1886  03B8  00F5               	movwf	___fladd@aexp
  1887  03B9                     l1589:
  1888  03B9  0875               	movf	___fladd@aexp,w
  1889  03BA  0674               	xorwf	___fladd@signs,w
  1890  03BB  1903               	skipnz
  1891  03BC  2BBE               	goto	u1531
  1892  03BD  2BBF               	goto	u1530
  1893  03BE                     u1531:
  1894  03BE  2BC0               	goto	l1593
  1895  03BF                     u1530:
  1896  03BF                     l1591:
  1897  03BF  1774               	bsf	___fladd@signs,6
  1898  03C0                     l1593:
  1899  03C0  0827               	movf	___fladd@a+3,w
  1900  03C1  00A8               	movwf	??___fladd
  1901  03C2  0728               	addwf	??___fladd,w
  1902  03C3  00A9               	movwf	??___fladd+1
  1903  03C4  0829               	movf	??___fladd+1,w
  1904  03C5  00F5               	movwf	___fladd@aexp
  1905  03C6                     l1595:
  1906  03C6  1FA6               	btfss	___fladd@a+2,7
  1907  03C7  2BC9               	goto	u1541
  1908  03C8  2BCA               	goto	u1540
  1909  03C9                     u1541:
  1910  03C9  2BCB               	goto	l1599
  1911  03CA                     u1540:
  1912  03CA                     l1597:
  1913  03CA  1475               	bsf	___fladd@aexp,0
  1914  03CB                     l1599:
  1915  03CB  0875               	movf	___fladd@aexp,w
  1916  03CC  1903               	btfsc	3,2
  1917  03CD  2BCF               	goto	u1551
  1918  03CE  2BD0               	goto	u1550
  1919  03CF                     u1551:
  1920  03CF  2BE0               	goto	l1609
  1921  03D0                     u1550:
  1922  03D0                     l1601:
  1923  03D0  0A75               	incf	___fladd@aexp,w
  1924  03D1  1D03               	btfss	3,2
  1925  03D2  2BD4               	goto	u1561
  1926  03D3  2BD5               	goto	u1560
  1927  03D4                     u1561:
  1928  03D4  2BDD               	goto	l1605
  1929  03D5                     u1560:
  1930  03D5                     l1603:
  1931  03D5  3000               	movlw	0
  1932  03D6  00A7               	movwf	___fladd@a+3
  1933  03D7  3000               	movlw	0
  1934  03D8  00A6               	movwf	___fladd@a+2
  1935  03D9  3000               	movlw	0
  1936  03DA  00A5               	movwf	___fladd@a+1
  1937  03DB  3000               	movlw	0
  1938  03DC  00A4               	movwf	___fladd@a
  1939  03DD                     l1605:
  1940  03DD  17A6               	bsf	___fladd@a+2,7
  1941  03DE                     l1607:
  1942  03DE  01A7               	clrf	___fladd@a+3
  1943  03DF  2BE8               	goto	l552
  1944  03E0                     l1609:
  1945  03E0  3000               	movlw	0
  1946  03E1  00A7               	movwf	___fladd@a+3
  1947  03E2  3000               	movlw	0
  1948  03E3  00A6               	movwf	___fladd@a+2
  1949  03E4  3000               	movlw	0
  1950  03E5  00A5               	movwf	___fladd@a+1
  1951  03E6  3000               	movlw	0
  1952  03E7  00A4               	movwf	___fladd@a
  1953  03E8                     l552:
  1954  03E8  0876               	movf	___fladd@bexp,w
  1955  03E9  0275               	subwf	___fladd@aexp,w
  1956  03EA  1803               	skipnc
  1957  03EB  2BED               	goto	u1571
  1958  03EC  2BEE               	goto	u1570
  1959  03ED                     u1571:
  1960  03ED  2C32               	goto	l1645
  1961  03EE                     u1570:
  1962  03EE                     l1611:
  1963  03EE  1F74               	btfss	___fladd@signs,6
  1964  03EF  2BF1               	goto	u1581
  1965  03F0  2BF2               	goto	u1580
  1966  03F1                     u1581:
  1967  03F1  2BF6               	goto	l1615
  1968  03F2                     u1580:
  1969  03F2                     l1613:
  1970  03F2  3080               	movlw	128
  1971  03F3  00A8               	movwf	??___fladd
  1972  03F4  0828               	movf	??___fladd,w
  1973  03F5  06F4               	xorwf	___fladd@signs,f
  1974  03F6                     l1615:
  1975  03F6  0876               	movf	___fladd@bexp,w
  1976  03F7  00A8               	movwf	??___fladd
  1977  03F8  0828               	movf	??___fladd,w
  1978  03F9  00F7               	movwf	___fladd@grs
  1979  03FA                     l1617:
  1980  03FA  0875               	movf	___fladd@aexp,w
  1981  03FB  00A8               	movwf	??___fladd
  1982  03FC  0828               	movf	??___fladd,w
  1983  03FD  00F6               	movwf	___fladd@bexp
  1984  03FE                     l1619:
  1985  03FE  0877               	movf	___fladd@grs,w
  1986  03FF  00A8               	movwf	??___fladd
  1987  0400  0828               	movf	??___fladd,w
  1988  0401  00F5               	movwf	___fladd@aexp
  1989  0402                     l1621:
  1990  0402  0820               	movf	___fladd@b,w
  1991  0403  00A8               	movwf	??___fladd
  1992  0404  0828               	movf	??___fladd,w
  1993  0405  00F7               	movwf	___fladd@grs
  1994  0406                     l1623:
  1995  0406  0824               	movf	___fladd@a,w
  1996  0407  00A8               	movwf	??___fladd
  1997  0408  0828               	movf	??___fladd,w
  1998  0409  00A0               	movwf	___fladd@b
  1999  040A                     l1625:
  2000  040A  0877               	movf	___fladd@grs,w
  2001  040B  00A8               	movwf	??___fladd
  2002  040C  0828               	movf	??___fladd,w
  2003  040D  00A4               	movwf	___fladd@a
  2004  040E                     l1627:
  2005  040E  0821               	movf	___fladd@b+1,w
  2006  040F  00A8               	movwf	??___fladd
  2007  0410  0828               	movf	??___fladd,w
  2008  0411  00F7               	movwf	___fladd@grs
  2009  0412                     l1629:
  2010  0412  0825               	movf	___fladd@a+1,w
  2011  0413  00A8               	movwf	??___fladd
  2012  0414  0828               	movf	??___fladd,w
  2013  0415  00A1               	movwf	___fladd@b+1
  2014  0416                     l1631:
  2015  0416  0877               	movf	___fladd@grs,w
  2016  0417  00A8               	movwf	??___fladd
  2017  0418  0828               	movf	??___fladd,w
  2018  0419  00A5               	movwf	___fladd@a+1
  2019  041A                     l1633:
  2020  041A  0822               	movf	___fladd@b+2,w
  2021  041B  00A8               	movwf	??___fladd
  2022  041C  0828               	movf	??___fladd,w
  2023  041D  00F7               	movwf	___fladd@grs
  2024  041E                     l1635:
  2025  041E  0826               	movf	___fladd@a+2,w
  2026  041F  00A8               	movwf	??___fladd
  2027  0420  0828               	movf	??___fladd,w
  2028  0421  00A2               	movwf	___fladd@b+2
  2029  0422                     l1637:
  2030  0422  0877               	movf	___fladd@grs,w
  2031  0423  00A8               	movwf	??___fladd
  2032  0424  0828               	movf	??___fladd,w
  2033  0425  00A6               	movwf	___fladd@a+2
  2034  0426                     l1639:
  2035  0426  0823               	movf	___fladd@b+3,w
  2036  0427  00A8               	movwf	??___fladd
  2037  0428  0828               	movf	??___fladd,w
  2038  0429  00F7               	movwf	___fladd@grs
  2039  042A                     l1641:
  2040  042A  0827               	movf	___fladd@a+3,w
  2041  042B  00A8               	movwf	??___fladd
  2042  042C  0828               	movf	??___fladd,w
  2043  042D  00A3               	movwf	___fladd@b+3
  2044  042E                     l1643:
  2045  042E  0877               	movf	___fladd@grs,w
  2046  042F  00A8               	movwf	??___fladd
  2047  0430  0828               	movf	??___fladd,w
  2048  0431  00A7               	movwf	___fladd@a+3
  2049  0432                     l1645:
  2050  0432  01F7               	clrf	___fladd@grs
  2051  0433                     l1647:
  2052  0433  0875               	movf	___fladd@aexp,w
  2053  0434  00A8               	movwf	??___fladd
  2054  0435  01A9               	clrf	??___fladd+1
  2055  0436  0829               	movf	??___fladd+1,w
  2056  0437  00AB               	movwf	??___fladd+3
  2057  0438  0876               	movf	___fladd@bexp,w
  2058  0439  0228               	subwf	??___fladd,w
  2059  043A  00AA               	movwf	??___fladd+2
  2060  043B  1C03               	skipc
  2061  043C  03AB               	decf	??___fladd+3,f
  2062  043D  082B               	movf	??___fladd+3,w
  2063  043E  3A80               	xorlw	128
  2064  043F  00FF               	movwf	btemp+1
  2065  0440  3080               	movlw	128
  2066  0441  027F               	subwf	btemp+1,w
  2067  0442  1D03               	skipz
  2068  0443  2C46               	goto	u1595
  2069  0444  301A               	movlw	26
  2070  0445  022A               	subwf	??___fladd+2,w
  2071  0446                     u1595:
  2072  0446  1C03               	skipc
  2073  0447  2C49               	goto	u1591
  2074  0448  2C4A               	goto	u1590
  2075  0449                     u1591:
  2076  0449  2C8B               	goto	l1663
  2077  044A                     u1590:
  2078  044A                     l1649:
  2079  044A  1283               	bcf	3,5	;RP0=0, select bank0
  2080  044B  1303               	bcf	3,6	;RP1=0, select bank0
  2081  044C  0823               	movf	___fladd@b+3,w
  2082  044D  0422               	iorwf	___fladd@b+2,w
  2083  044E  0421               	iorwf	___fladd@b+1,w
  2084  044F  0420               	iorwf	___fladd@b,w
  2085  0450  1D03               	skipz
  2086  0451  2C53               	goto	u1601
  2087  0452  2C55               	goto	u1600
  2088  0453                     u1601:
  2089  0453  3001               	movlw	1
  2090  0454  2C56               	goto	u1610
  2091  0455                     u1600:
  2092  0455  3000               	movlw	0
  2093  0456                     u1610:
  2094  0456  00A8               	movwf	??___fladd
  2095  0457  0828               	movf	??___fladd,w
  2096  0458  00F7               	movwf	___fladd@grs
  2097  0459  3000               	movlw	0
  2098  045A  00A3               	movwf	___fladd@b+3
  2099  045B  3000               	movlw	0
  2100  045C  00A2               	movwf	___fladd@b+2
  2101  045D  3000               	movlw	0
  2102  045E  00A1               	movwf	___fladd@b+1
  2103  045F  3000               	movlw	0
  2104  0460  00A0               	movwf	___fladd@b
  2105  0461  0875               	movf	___fladd@aexp,w
  2106  0462  00A8               	movwf	??___fladd
  2107  0463  0828               	movf	??___fladd,w
  2108  0464  00F6               	movwf	___fladd@bexp
  2109  0465  2C91               	goto	l556
  2110  0466                     l558:
  2111  0466  1C77               	btfss	___fladd@grs,0
  2112  0467  2C69               	goto	u1621
  2113  0468  2C6A               	goto	u1620
  2114  0469                     u1621:
  2115  0469  2C75               	goto	l1653
  2116  046A                     u1620:
  2117  046A                     l1651:
  2118  046A  0877               	movf	___fladd@grs,w
  2119  046B  1283               	bcf	3,5	;RP0=0, select bank0
  2120  046C  1303               	bcf	3,6	;RP1=0, select bank0
  2121  046D  00A8               	movwf	??___fladd
  2122  046E  1003               	clrc
  2123  046F  0C28               	rrf	??___fladd,w
  2124  0470  3801               	iorlw	1
  2125  0471  00A9               	movwf	??___fladd+1
  2126  0472  0829               	movf	??___fladd+1,w
  2127  0473  00F7               	movwf	___fladd@grs
  2128  0474  2C77               	goto	l1655
  2129  0475                     l1653:
  2130  0475  1003               	clrc
  2131  0476  0CF7               	rrf	___fladd@grs,f
  2132  0477                     l1655:
  2133  0477  1283               	bcf	3,5	;RP0=0, select bank0
  2134  0478  1303               	bcf	3,6	;RP1=0, select bank0
  2135  0479  1C20               	btfss	___fladd@b,0
  2136  047A  2C7C               	goto	u1631
  2137  047B  2C7D               	goto	u1630
  2138  047C                     u1631:
  2139  047C  2C7E               	goto	l1659
  2140  047D                     u1630:
  2141  047D                     l1657:
  2142  047D  17F7               	bsf	___fladd@grs,7
  2143  047E                     l1659:
  2144  047E  3001               	movlw	1
  2145  047F  00A8               	movwf	??___fladd
  2146  0480                     u1645:
  2147  0480  0D23               	rlf	___fladd@b+3,w
  2148  0481  0CA3               	rrf	___fladd@b+3,f
  2149  0482  0CA2               	rrf	___fladd@b+2,f
  2150  0483  0CA1               	rrf	___fladd@b+1,f
  2151  0484  0CA0               	rrf	___fladd@b,f
  2152  0485  0BA8               	decfsz	??___fladd& (0+127),f
  2153  0486  2C80               	goto	u1645
  2154  0487                     l1661:
  2155  0487  3001               	movlw	1
  2156  0488  00A8               	movwf	??___fladd
  2157  0489  0828               	movf	??___fladd,w
  2158  048A  07F6               	addwf	___fladd@bexp,f
  2159  048B                     l1663:
  2160  048B  0875               	movf	___fladd@aexp,w
  2161  048C  0276               	subwf	___fladd@bexp,w
  2162  048D  1C03               	skipc
  2163  048E  2C90               	goto	u1651
  2164  048F  2C91               	goto	u1650
  2165  0490                     u1651:
  2166  0490  2C66               	goto	l558
  2167  0491                     u1650:
  2168  0491                     l556:
  2169  0491  1B74               	btfsc	___fladd@signs,6
  2170  0492  2C94               	goto	u1661
  2171  0493  2C95               	goto	u1660
  2172  0494                     u1661:
  2173  0494  2CE4               	goto	l1689
  2174  0495                     u1660:
  2175  0495                     l1665:
  2176  0495  0876               	movf	___fladd@bexp,w
  2177  0496  1D03               	btfss	3,2
  2178  0497  2C99               	goto	u1671
  2179  0498  2C9A               	goto	u1670
  2180  0499                     u1671:
  2181  0499  2CA5               	goto	l1671
  2182  049A                     u1670:
  2183  049A                     l1667:
  2184  049A  3000               	movlw	0
  2185  049B  1283               	bcf	3,5	;RP0=0, select bank0
  2186  049C  1303               	bcf	3,6	;RP1=0, select bank0
  2187  049D  00A3               	movwf	?___fladd+3
  2188  049E  3000               	movlw	0
  2189  049F  00A2               	movwf	?___fladd+2
  2190  04A0  3000               	movlw	0
  2191  04A1  00A1               	movwf	?___fladd+1
  2192  04A2  3000               	movlw	0
  2193  04A3  00A0               	movwf	?___fladd
  2194  04A4  2E14               	goto	l565
  2195  04A5                     l1671:
  2196  04A5  1283               	bcf	3,5	;RP0=0, select bank0
  2197  04A6  1303               	bcf	3,6	;RP1=0, select bank0
  2198  04A7  0824               	movf	___fladd@a,w
  2199  04A8  07A0               	addwf	___fladd@b,f
  2200  04A9  0825               	movf	___fladd@a+1,w
  2201  04AA  1103               	clrz
  2202  04AB  1803               	skipnc
  2203  04AC  3E01               	addlw	1
  2204  04AD  1903               	skipnz
  2205  04AE  2CB0               	goto	u1681
  2206  04AF  07A1               	addwf	___fladd@b+1,f
  2207  04B0                     u1681:
  2208  04B0  0826               	movf	___fladd@a+2,w
  2209  04B1  1103               	clrz
  2210  04B2  1803               	skipnc
  2211  04B3  3E01               	addlw	1
  2212  04B4  1903               	skipnz
  2213  04B5  2CB7               	goto	u1682
  2214  04B6  07A2               	addwf	___fladd@b+2,f
  2215  04B7                     u1682:
  2216  04B7  0827               	movf	___fladd@a+3,w
  2217  04B8  1103               	clrz
  2218  04B9  1803               	skipnc
  2219  04BA  3E01               	addlw	1
  2220  04BB  1903               	skipnz
  2221  04BC  2CBE               	goto	u1683
  2222  04BD  07A3               	addwf	___fladd@b+3,f
  2223  04BE                     u1683:
  2224  04BE                     l1673:
  2225  04BE  1C23               	btfss	___fladd@b+3,0
  2226  04BF  2CC1               	goto	u1691
  2227  04C0  2CC2               	goto	u1690
  2228  04C1                     u1691:
  2229  04C1  2D9A               	goto	l1723
  2230  04C2                     u1690:
  2231  04C2                     l1675:
  2232  04C2  1C77               	btfss	___fladd@grs,0
  2233  04C3  2CC5               	goto	u1701
  2234  04C4  2CC6               	goto	u1700
  2235  04C5                     u1701:
  2236  04C5  2CCF               	goto	l1679
  2237  04C6                     u1700:
  2238  04C6                     l1677:
  2239  04C6  0877               	movf	___fladd@grs,w
  2240  04C7  00A8               	movwf	??___fladd
  2241  04C8  1003               	clrc
  2242  04C9  0C28               	rrf	??___fladd,w
  2243  04CA  3801               	iorlw	1
  2244  04CB  00A9               	movwf	??___fladd+1
  2245  04CC  0829               	movf	??___fladd+1,w
  2246  04CD  00F7               	movwf	___fladd@grs
  2247  04CE  2CD1               	goto	l1681
  2248  04CF                     l1679:
  2249  04CF  1003               	clrc
  2250  04D0  0CF7               	rrf	___fladd@grs,f
  2251  04D1                     l1681:
  2252  04D1  1C20               	btfss	___fladd@b,0
  2253  04D2  2CD4               	goto	u1711
  2254  04D3  2CD5               	goto	u1710
  2255  04D4                     u1711:
  2256  04D4  2CD6               	goto	l1685
  2257  04D5                     u1710:
  2258  04D5                     l1683:
  2259  04D5  17F7               	bsf	___fladd@grs,7
  2260  04D6                     l1685:
  2261  04D6  3001               	movlw	1
  2262  04D7  00A8               	movwf	??___fladd
  2263  04D8                     u1725:
  2264  04D8  0D23               	rlf	___fladd@b+3,w
  2265  04D9  0CA3               	rrf	___fladd@b+3,f
  2266  04DA  0CA2               	rrf	___fladd@b+2,f
  2267  04DB  0CA1               	rrf	___fladd@b+1,f
  2268  04DC  0CA0               	rrf	___fladd@b,f
  2269  04DD  0BA8               	decfsz	??___fladd& (0+127),f
  2270  04DE  2CD8               	goto	u1725
  2271  04DF                     l1687:
  2272  04DF  3001               	movlw	1
  2273  04E0  00A8               	movwf	??___fladd
  2274  04E1  0828               	movf	??___fladd,w
  2275  04E2  07F6               	addwf	___fladd@bexp,f
  2276  04E3  2D9A               	goto	l1723
  2277  04E4                     l1689:
  2278  04E4  1283               	bcf	3,5	;RP0=0, select bank0
  2279  04E5  1303               	bcf	3,6	;RP1=0, select bank0
  2280  04E6  0823               	movf	___fladd@b+3,w
  2281  04E7  3A80               	xorlw	128
  2282  04E8  00FF               	movwf	btemp+1
  2283  04E9  0827               	movf	___fladd@a+3,w
  2284  04EA  3A80               	xorlw	128
  2285  04EB  027F               	subwf	btemp+1,w
  2286  04EC  1D03               	skipz
  2287  04ED  2CF8               	goto	u1733
  2288  04EE  0826               	movf	___fladd@a+2,w
  2289  04EF  0222               	subwf	___fladd@b+2,w
  2290  04F0  1D03               	skipz
  2291  04F1  2CF8               	goto	u1733
  2292  04F2  0825               	movf	___fladd@a+1,w
  2293  04F3  0221               	subwf	___fladd@b+1,w
  2294  04F4  1D03               	skipz
  2295  04F5  2CF8               	goto	u1733
  2296  04F6  0824               	movf	___fladd@a,w
  2297  04F7  0220               	subwf	___fladd@b,w
  2298  04F8                     u1733:
  2299  04F8  1803               	skipnc
  2300  04F9  2CFB               	goto	u1731
  2301  04FA  2CFC               	goto	u1730
  2302  04FB                     u1731:
  2303  04FB  2D54               	goto	l1699
  2304  04FC                     u1730:
  2305  04FC                     l1691:
  2306  04FC  30FF               	movlw	255
  2307  04FD  00A8               	movwf	??___fladd
  2308  04FE  30FF               	movlw	255
  2309  04FF  00A9               	movwf	??___fladd+1
  2310  0500  30FF               	movlw	255
  2311  0501  00AA               	movwf	??___fladd+2
  2312  0502  30FF               	movlw	255
  2313  0503  00AB               	movwf	??___fladd+3
  2314  0504  0824               	movf	___fladd@a,w
  2315  0505  00AC               	movwf	??___fladd+4
  2316  0506  0825               	movf	___fladd@a+1,w
  2317  0507  00AD               	movwf	??___fladd+5
  2318  0508  0826               	movf	___fladd@a+2,w
  2319  0509  00AE               	movwf	??___fladd+6
  2320  050A  0827               	movf	___fladd@a+3,w
  2321  050B  00AF               	movwf	??___fladd+7
  2322  050C  0820               	movf	___fladd@b,w
  2323  050D  02AC               	subwf	??___fladd+4,f
  2324  050E  0821               	movf	___fladd@b+1,w
  2325  050F  1C03               	skipc
  2326  0510  0F21               	incfsz	___fladd@b+1,w
  2327  0511  2D13               	goto	u1741
  2328  0512  2D14               	goto	u1742
  2329  0513                     u1741:
  2330  0513  02AD               	subwf	??___fladd+5,f
  2331  0514                     u1742:
  2332  0514  0822               	movf	___fladd@b+2,w
  2333  0515  1C03               	skipc
  2334  0516  0F22               	incfsz	___fladd@b+2,w
  2335  0517  2D19               	goto	u1743
  2336  0518  2D1A               	goto	u1744
  2337  0519                     u1743:
  2338  0519  02AE               	subwf	??___fladd+6,f
  2339  051A                     u1744:
  2340  051A  0823               	movf	___fladd@b+3,w
  2341  051B  1C03               	skipc
  2342  051C  0F23               	incfsz	___fladd@b+3,w
  2343  051D  2D1F               	goto	u1745
  2344  051E  2D20               	goto	u1746
  2345  051F                     u1745:
  2346  051F  02AF               	subwf	??___fladd+7,f
  2347  0520                     u1746:
  2348  0520  082C               	movf	??___fladd+4,w
  2349  0521  07A8               	addwf	??___fladd,f
  2350  0522  082D               	movf	??___fladd+5,w
  2351  0523  1803               	skipnc
  2352  0524  0F2D               	incfsz	??___fladd+5,w
  2353  0525  2D27               	goto	u1750
  2354  0526  2D28               	goto	u1751
  2355  0527                     u1750:
  2356  0527  07A9               	addwf	??___fladd+1,f
  2357  0528                     u1751:
  2358  0528  082E               	movf	??___fladd+6,w
  2359  0529  1803               	skipnc
  2360  052A  0F2E               	incfsz	??___fladd+6,w
  2361  052B  2D2D               	goto	u1752
  2362  052C  2D2E               	goto	u1753
  2363  052D                     u1752:
  2364  052D  07AA               	addwf	??___fladd+2,f
  2365  052E                     u1753:
  2366  052E  082F               	movf	??___fladd+7,w
  2367  052F  1803               	skipnc
  2368  0530  0A2F               	incf	??___fladd+7,w
  2369  0531  07AB               	addwf	??___fladd+3,f
  2370  0532  082B               	movf	??___fladd+3,w
  2371  0533  00A3               	movwf	___fladd@b+3
  2372  0534  082A               	movf	??___fladd+2,w
  2373  0535  00A2               	movwf	___fladd@b+2
  2374  0536  0829               	movf	??___fladd+1,w
  2375  0537  00A1               	movwf	___fladd@b+1
  2376  0538  0828               	movf	??___fladd,w
  2377  0539  00A0               	movwf	___fladd@b
  2378  053A                     l1693:
  2379  053A  3080               	movlw	128
  2380  053B  00A8               	movwf	??___fladd
  2381  053C  0828               	movf	??___fladd,w
  2382  053D  06F4               	xorwf	___fladd@signs,f
  2383  053E  09F7               	comf	___fladd@grs,f
  2384  053F  0AF7               	incf	___fladd@grs,f
  2385  0540                     l1695:
  2386  0540  0877               	movf	___fladd@grs,w
  2387  0541  1D03               	btfss	3,2
  2388  0542  2D44               	goto	u1761
  2389  0543  2D45               	goto	u1760
  2390  0544                     u1761:
  2391  0544  2D62               	goto	l573
  2392  0545                     u1760:
  2393  0545                     l1697:
  2394  0545  3001               	movlw	1
  2395  0546  07A0               	addwf	___fladd@b,f
  2396  0547  3000               	movlw	0
  2397  0548  1803               	skipnc
  2398  0549  3001               	movlw	1
  2399  054A  07A1               	addwf	___fladd@b+1,f
  2400  054B  3000               	movlw	0
  2401  054C  1803               	skipnc
  2402  054D  3001               	movlw	1
  2403  054E  07A2               	addwf	___fladd@b+2,f
  2404  054F  3000               	movlw	0
  2405  0550  1803               	skipnc
  2406  0551  3001               	movlw	1
  2407  0552  07A3               	addwf	___fladd@b+3,f
  2408  0553  2D62               	goto	l573
  2409  0554                     l1699:
  2410  0554  0824               	movf	___fladd@a,w
  2411  0555  02A0               	subwf	___fladd@b,f
  2412  0556  0825               	movf	___fladd@a+1,w
  2413  0557  1C03               	skipc
  2414  0558  0F25               	incfsz	___fladd@a+1,w
  2415  0559  02A1               	subwf	___fladd@b+1,f
  2416  055A  0826               	movf	___fladd@a+2,w
  2417  055B  1C03               	skipc
  2418  055C  0F26               	incfsz	___fladd@a+2,w
  2419  055D  02A2               	subwf	___fladd@b+2,f
  2420  055E  0827               	movf	___fladd@a+3,w
  2421  055F  1C03               	skipc
  2422  0560  0F27               	incfsz	___fladd@a+3,w
  2423  0561  02A3               	subwf	___fladd@b+3,f
  2424  0562                     l573:
  2425  0562  0823               	movf	___fladd@b+3,w
  2426  0563  0422               	iorwf	___fladd@b+2,w
  2427  0564  0421               	iorwf	___fladd@b+1,w
  2428  0565  0420               	iorwf	___fladd@b,w
  2429  0566  1D03               	skipz
  2430  0567  2D69               	goto	u1771
  2431  0568  2D6A               	goto	u1770
  2432  0569                     u1771:
  2433  0569  2D96               	goto	l1721
  2434  056A                     u1770:
  2435  056A                     l1701:
  2436  056A  0877               	movf	___fladd@grs,w
  2437  056B  1D03               	btfss	3,2
  2438  056C  2D6E               	goto	u1781
  2439  056D  2D6F               	goto	u1780
  2440  056E                     u1781:
  2441  056E  2D96               	goto	l1721
  2442  056F                     u1780:
  2443  056F                     l1703:
  2444  056F  3000               	movlw	0
  2445  0570  00A3               	movwf	?___fladd+3
  2446  0571  3000               	movlw	0
  2447  0572  00A2               	movwf	?___fladd+2
  2448  0573  3000               	movlw	0
  2449  0574  00A1               	movwf	?___fladd+1
  2450  0575  3000               	movlw	0
  2451  0576  00A0               	movwf	?___fladd
  2452  0577  2E14               	goto	l565
  2453  0578                     l1707:
  2454  0578  3001               	movlw	1
  2455  0579  00A8               	movwf	??___fladd
  2456  057A                     u1795:
  2457  057A  1003               	clrc
  2458  057B  0DA0               	rlf	___fladd@b,f
  2459  057C  0DA1               	rlf	___fladd@b+1,f
  2460  057D  0DA2               	rlf	___fladd@b+2,f
  2461  057E  0DA3               	rlf	___fladd@b+3,f
  2462  057F  0BA8               	decfsz	??___fladd,f
  2463  0580  2D7A               	goto	u1795
  2464  0581                     l1709:
  2465  0581  1FF7               	btfss	___fladd@grs,7
  2466  0582  2D84               	goto	u1801
  2467  0583  2D85               	goto	u1800
  2468  0584                     u1801:
  2469  0584  2D86               	goto	l577
  2470  0585                     u1800:
  2471  0585                     l1711:
  2472  0585  1420               	bsf	___fladd@b,0
  2473  0586                     l577:
  2474  0586  1C77               	btfss	___fladd@grs,0
  2475  0587  2D89               	goto	u1811
  2476  0588  2D8A               	goto	u1810
  2477  0589                     u1811:
  2478  0589  2D8D               	goto	l1715
  2479  058A                     u1810:
  2480  058A                     l1713:
  2481  058A  1403               	setc
  2482  058B  0DF7               	rlf	___fladd@grs,f
  2483  058C  2D8F               	goto	l1717
  2484  058D                     l1715:
  2485  058D  1003               	clrc
  2486  058E  0DF7               	rlf	___fladd@grs,f
  2487  058F                     l1717:
  2488  058F  0876               	movf	___fladd@bexp,w
  2489  0590  1903               	btfsc	3,2
  2490  0591  2D93               	goto	u1821
  2491  0592  2D94               	goto	u1820
  2492  0593                     u1821:
  2493  0593  2D96               	goto	l1721
  2494  0594                     u1820:
  2495  0594                     l1719:
  2496  0594  3001               	movlw	1
  2497  0595  02F6               	subwf	___fladd@bexp,f
  2498  0596                     l1721:
  2499  0596  1FA2               	btfss	___fladd@b+2,7
  2500  0597  2D99               	goto	u1831
  2501  0598  2D9A               	goto	u1830
  2502  0599                     u1831:
  2503  0599  2D78               	goto	l1707
  2504  059A                     u1830:
  2505  059A                     l1723:
  2506  059A  01F5               	clrf	___fladd@aexp
  2507  059B                     l1725:
  2508  059B  1FF7               	btfss	___fladd@grs,7
  2509  059C  2D9E               	goto	u1841
  2510  059D  2D9F               	goto	u1840
  2511  059E                     u1841:
  2512  059E  2DAD               	goto	l1733
  2513  059F                     u1840:
  2514  059F                     l1727:
  2515  059F  0877               	movf	___fladd@grs,w
  2516  05A0  397F               	andlw	127
  2517  05A1  1903               	btfsc	3,2
  2518  05A2  2DA4               	goto	u1851
  2519  05A3  2DA5               	goto	u1850
  2520  05A4                     u1851:
  2521  05A4  2DA8               	goto	l583
  2522  05A5                     u1850:
  2523  05A5                     l1729:
  2524  05A5  01F5               	clrf	___fladd@aexp
  2525  05A6  0AF5               	incf	___fladd@aexp,f
  2526  05A7  2DAD               	goto	l1733
  2527  05A8                     l583:
  2528  05A8  1C20               	btfss	___fladd@b,0
  2529  05A9  2DAB               	goto	u1861
  2530  05AA  2DAC               	goto	u1860
  2531  05AB                     u1861:
  2532  05AB  2DAD               	goto	l1733
  2533  05AC                     u1860:
  2534  05AC  2DA5               	goto	l1729
  2535  05AD                     l1733:
  2536  05AD  0875               	movf	___fladd@aexp,w
  2537  05AE  1903               	btfsc	3,2
  2538  05AF  2DB1               	goto	u1871
  2539  05B0  2DB2               	goto	u1870
  2540  05B1                     u1871:
  2541  05B1  2DE6               	goto	l586
  2542  05B2                     u1870:
  2543  05B2                     l1735:
  2544  05B2  3001               	movlw	1
  2545  05B3  07A0               	addwf	___fladd@b,f
  2546  05B4  3000               	movlw	0
  2547  05B5  1803               	skipnc
  2548  05B6  3001               	movlw	1
  2549  05B7  07A1               	addwf	___fladd@b+1,f
  2550  05B8  3000               	movlw	0
  2551  05B9  1803               	skipnc
  2552  05BA  3001               	movlw	1
  2553  05BB  07A2               	addwf	___fladd@b+2,f
  2554  05BC  3000               	movlw	0
  2555  05BD  1803               	skipnc
  2556  05BE  3001               	movlw	1
  2557  05BF  07A3               	addwf	___fladd@b+3,f
  2558  05C0                     l1737:
  2559  05C0  1C23               	btfss	___fladd@b+3,0
  2560  05C1  2DC3               	goto	u1881
  2561  05C2  2DC4               	goto	u1880
  2562  05C3                     u1881:
  2563  05C3  2DE6               	goto	l586
  2564  05C4                     u1880:
  2565  05C4                     l1739:
  2566  05C4  0820               	movf	___fladd@b,w
  2567  05C5  00A8               	movwf	??___fladd
  2568  05C6  0821               	movf	___fladd@b+1,w
  2569  05C7  00A9               	movwf	??___fladd+1
  2570  05C8  0822               	movf	___fladd@b+2,w
  2571  05C9  00AA               	movwf	??___fladd+2
  2572  05CA  0823               	movf	___fladd@b+3,w
  2573  05CB  00AB               	movwf	??___fladd+3
  2574  05CC  3001               	movlw	1
  2575  05CD  00AC               	movwf	??___fladd+4
  2576  05CE                     u1895:
  2577  05CE  0D2B               	rlf	??___fladd+3,w
  2578  05CF  0CAB               	rrf	??___fladd+3,f
  2579  05D0  0CAA               	rrf	??___fladd+2,f
  2580  05D1  0CA9               	rrf	??___fladd+1,f
  2581  05D2  0CA8               	rrf	??___fladd,f
  2582  05D3                     u1890:
  2583  05D3  0BAC               	decfsz	??___fladd+4,f
  2584  05D4  2DCE               	goto	u1895
  2585  05D5  082B               	movf	??___fladd+3,w
  2586  05D6  00A3               	movwf	___fladd@b+3
  2587  05D7  082A               	movf	??___fladd+2,w
  2588  05D8  00A2               	movwf	___fladd@b+2
  2589  05D9  0829               	movf	??___fladd+1,w
  2590  05DA  00A1               	movwf	___fladd@b+1
  2591  05DB  0828               	movf	??___fladd,w
  2592  05DC  00A0               	movwf	___fladd@b
  2593  05DD  0A76               	incf	___fladd@bexp,w
  2594  05DE  1903               	btfsc	3,2
  2595  05DF  2DE1               	goto	u1901
  2596  05E0  2DE2               	goto	u1900
  2597  05E1                     u1901:
  2598  05E1  2DE6               	goto	l586
  2599  05E2                     u1900:
  2600  05E2                     l1741:
  2601  05E2  3001               	movlw	1
  2602  05E3  00A8               	movwf	??___fladd
  2603  05E4  0828               	movf	??___fladd,w
  2604  05E5  07F6               	addwf	___fladd@bexp,f
  2605  05E6                     l586:
  2606  05E6  0A76               	incf	___fladd@bexp,w
  2607  05E7  1903               	btfsc	3,2
  2608  05E8  2DEA               	goto	u1911
  2609  05E9  2DEB               	goto	u1910
  2610  05EA                     u1911:
  2611  05EA  2DF0               	goto	l1745
  2612  05EB                     u1910:
  2613  05EB                     l1743:
  2614  05EB  0876               	movf	___fladd@bexp,w
  2615  05EC  1D03               	btfss	3,2
  2616  05ED  2DEF               	goto	u1921
  2617  05EE  2DF0               	goto	u1920
  2618  05EF                     u1921:
  2619  05EF  2DFE               	goto	l1751
  2620  05F0                     u1920:
  2621  05F0                     l1745:
  2622  05F0  3000               	movlw	0
  2623  05F1  00A3               	movwf	___fladd@b+3
  2624  05F2  3000               	movlw	0
  2625  05F3  00A2               	movwf	___fladd@b+2
  2626  05F4  3000               	movlw	0
  2627  05F5  00A1               	movwf	___fladd@b+1
  2628  05F6  3000               	movlw	0
  2629  05F7  00A0               	movwf	___fladd@b
  2630  05F8                     l1747:
  2631  05F8  0876               	movf	___fladd@bexp,w
  2632  05F9  1D03               	btfss	3,2
  2633  05FA  2DFC               	goto	u1931
  2634  05FB  2DFD               	goto	u1930
  2635  05FC                     u1931:
  2636  05FC  2DFE               	goto	l1751
  2637  05FD                     u1930:
  2638  05FD                     l1749:
  2639  05FD  01F4               	clrf	___fladd@signs
  2640  05FE                     l1751:
  2641  05FE  1C76               	btfss	___fladd@bexp,0
  2642  05FF  2E01               	goto	u1941
  2643  0600  2E02               	goto	u1940
  2644  0601                     u1941:
  2645  0601  2E04               	goto	l1755
  2646  0602                     u1940:
  2647  0602                     l1753:
  2648  0602  17A2               	bsf	___fladd@b+2,7
  2649  0603  2E08               	goto	l594
  2650  0604                     l1755:
  2651  0604  307F               	movlw	127
  2652  0605  00A8               	movwf	??___fladd
  2653  0606  0828               	movf	??___fladd,w
  2654  0607  05A2               	andwf	___fladd@b+2,f
  2655  0608                     l594:
  2656  0608  0876               	movf	___fladd@bexp,w
  2657  0609  00A8               	movwf	??___fladd
  2658  060A  1003               	clrc
  2659  060B  0C28               	rrf	??___fladd,w
  2660  060C  00A9               	movwf	??___fladd+1
  2661  060D  0829               	movf	??___fladd+1,w
  2662  060E  00A3               	movwf	___fladd@b+3
  2663  060F                     l1757:
  2664  060F  1FF4               	btfss	___fladd@signs,7
  2665  0610  2E12               	goto	u1951
  2666  0611  2E13               	goto	u1950
  2667  0612                     u1951:
  2668  0612  2E14               	goto	l595
  2669  0613                     u1950:
  2670  0613                     l1759:
  2671  0613  17A3               	bsf	___fladd@b+3,7
  2672  0614                     l595:
  2673  0614                     l565:
  2674  0614  0008               	return
  2675  0615                     __end_of___fladd:
  2676                           
  2677                           	psect	text6
  2678  0024                     __ptext6:	
  2679 ;; *************** function ___flmul *****************
  2680 ;; Defined at:
  2681 ;;		line 8 in file "C:\Program Files\Microchip\xc8\v2.32\pic\sources\c90\common\sprcmul.c"
  2682 ;; Parameters:    Size  Location     Type
  2683 ;;  b               4   10[BANK0 ] unsigned char 
  2684 ;;  a               4   14[BANK0 ] unsigned char 
  2685 ;; Auto vars:     Size  Location     Type
  2686 ;;  prod            4   30[BANK0 ] struct .
  2687 ;;  grs             4   24[BANK0 ] unsigned long 
  2688 ;;  temp            2   34[BANK0 ] struct .
  2689 ;;  bexp            1   29[BANK0 ] unsigned char 
  2690 ;;  aexp            1   28[BANK0 ] unsigned char 
  2691 ;;  sign            1   23[BANK0 ] unsigned char 
  2692 ;; Return value:  Size  Location     Type
  2693 ;;                  4   10[BANK0 ] unsigned char 
  2694 ;; Registers used:
  2695 ;;		wreg, status,2, status,0, btemp+1, pclath, cstack
  2696 ;; Tracked objects:
  2697 ;;		On entry : 0/0
  2698 ;;		On exit  : 0/0
  2699 ;;		Unchanged: 0/0
  2700 ;; Data sizes:     COMMON   BANK0   BANK1   BANK3   BANK2
  2701 ;;      Params:         0       8       0       0       0
  2702 ;;      Locals:         0      13       0       0       0
  2703 ;;      Temps:          0       5       0       0       0
  2704 ;;      Totals:         0      26       0       0       0
  2705 ;;Total ram usage:       26 bytes
  2706 ;; Hardware stack levels used: 1
  2707 ;; Hardware stack levels required when called: 2
  2708 ;; This function calls:
  2709 ;;		__Umul8_16
  2710 ;; This function is called by:
  2711 ;;		_main
  2712 ;; This function uses a non-reentrant model
  2713 ;;
  2714                           
  2715                           
  2716                           ;psect for function ___flmul
  2717  0024                     ___flmul:
  2718  0024                     l2051:	
  2719                           ;incstack = 0
  2720                           ; Regs used in ___flmul: [wreg+status,2+status,0+btemp+1+pclath+cstack]
  2721                           
  2722  0024  1283               	bcf	3,5	;RP0=0, select bank0
  2723  0025  1303               	bcf	3,6	;RP1=0, select bank0
  2724  0026  082D               	movf	___flmul@b+3,w
  2725  0027  3980               	andlw	128
  2726  0028  00B2               	movwf	??___flmul
  2727  0029  0832               	movf	??___flmul,w
  2728  002A  00B7               	movwf	___flmul@sign
  2729  002B                     l2053:
  2730  002B  082D               	movf	___flmul@b+3,w
  2731  002C  00B2               	movwf	??___flmul
  2732  002D  0732               	addwf	??___flmul,w
  2733  002E  00B3               	movwf	??___flmul+1
  2734  002F  0833               	movf	??___flmul+1,w
  2735  0030  00BD               	movwf	___flmul@bexp
  2736  0031                     l2055:
  2737  0031  1FAC               	btfss	___flmul@b+2,7
  2738  0032  2834               	goto	u2431
  2739  0033  2835               	goto	u2430
  2740  0034                     u2431:
  2741  0034  2836               	goto	l2059
  2742  0035                     u2430:
  2743  0035                     l2057:
  2744  0035  143D               	bsf	___flmul@bexp,0
  2745  0036                     l2059:
  2746  0036  083D               	movf	___flmul@bexp,w
  2747  0037  1903               	btfsc	3,2
  2748  0038  283A               	goto	u2441
  2749  0039  283B               	goto	u2440
  2750  003A                     u2441:
  2751  003A  284A               	goto	l2067
  2752  003B                     u2440:
  2753  003B                     l2061:
  2754  003B  0A3D               	incf	___flmul@bexp,w
  2755  003C  1D03               	btfss	3,2
  2756  003D  283F               	goto	u2451
  2757  003E  2840               	goto	u2450
  2758  003F                     u2451:
  2759  003F  2848               	goto	l2065
  2760  0040                     u2450:
  2761  0040                     l2063:
  2762  0040  3000               	movlw	0
  2763  0041  00AD               	movwf	___flmul@b+3
  2764  0042  3000               	movlw	0
  2765  0043  00AC               	movwf	___flmul@b+2
  2766  0044  3000               	movlw	0
  2767  0045  00AB               	movwf	___flmul@b+1
  2768  0046  3000               	movlw	0
  2769  0047  00AA               	movwf	___flmul@b
  2770  0048                     l2065:
  2771  0048  17AC               	bsf	___flmul@b+2,7
  2772  0049  2852               	goto	l2069
  2773  004A                     l2067:
  2774  004A  3000               	movlw	0
  2775  004B  00AD               	movwf	___flmul@b+3
  2776  004C  3000               	movlw	0
  2777  004D  00AC               	movwf	___flmul@b+2
  2778  004E  3000               	movlw	0
  2779  004F  00AB               	movwf	___flmul@b+1
  2780  0050  3000               	movlw	0
  2781  0051  00AA               	movwf	___flmul@b
  2782  0052                     l2069:
  2783  0052  0831               	movf	___flmul@a+3,w
  2784  0053  3980               	andlw	128
  2785  0054  00B2               	movwf	??___flmul
  2786  0055  0832               	movf	??___flmul,w
  2787  0056  06B7               	xorwf	___flmul@sign,f
  2788  0057                     l2071:
  2789  0057  0831               	movf	___flmul@a+3,w
  2790  0058  00B2               	movwf	??___flmul
  2791  0059  0732               	addwf	??___flmul,w
  2792  005A  00B3               	movwf	??___flmul+1
  2793  005B  0833               	movf	??___flmul+1,w
  2794  005C  00BC               	movwf	___flmul@aexp
  2795  005D                     l2073:
  2796  005D  1FB0               	btfss	___flmul@a+2,7
  2797  005E  2860               	goto	u2461
  2798  005F  2861               	goto	u2460
  2799  0060                     u2461:
  2800  0060  2862               	goto	l2077
  2801  0061                     u2460:
  2802  0061                     l2075:
  2803  0061  143C               	bsf	___flmul@aexp,0
  2804  0062                     l2077:
  2805  0062  083C               	movf	___flmul@aexp,w
  2806  0063  1903               	btfsc	3,2
  2807  0064  2866               	goto	u2471
  2808  0065  2867               	goto	u2470
  2809  0066                     u2471:
  2810  0066  2876               	goto	l2085
  2811  0067                     u2470:
  2812  0067                     l2079:
  2813  0067  0A3C               	incf	___flmul@aexp,w
  2814  0068  1D03               	btfss	3,2
  2815  0069  286B               	goto	u2481
  2816  006A  286C               	goto	u2480
  2817  006B                     u2481:
  2818  006B  2874               	goto	l2083
  2819  006C                     u2480:
  2820  006C                     l2081:
  2821  006C  3000               	movlw	0
  2822  006D  00B1               	movwf	___flmul@a+3
  2823  006E  3000               	movlw	0
  2824  006F  00B0               	movwf	___flmul@a+2
  2825  0070  3000               	movlw	0
  2826  0071  00AF               	movwf	___flmul@a+1
  2827  0072  3000               	movlw	0
  2828  0073  00AE               	movwf	___flmul@a
  2829  0074                     l2083:
  2830  0074  17B0               	bsf	___flmul@a+2,7
  2831  0075  287E               	goto	l2087
  2832  0076                     l2085:
  2833  0076  3000               	movlw	0
  2834  0077  00B1               	movwf	___flmul@a+3
  2835  0078  3000               	movlw	0
  2836  0079  00B0               	movwf	___flmul@a+2
  2837  007A  3000               	movlw	0
  2838  007B  00AF               	movwf	___flmul@a+1
  2839  007C  3000               	movlw	0
  2840  007D  00AE               	movwf	___flmul@a
  2841  007E                     l2087:
  2842  007E  083C               	movf	___flmul@aexp,w
  2843  007F  1903               	btfsc	3,2
  2844  0080  2882               	goto	u2491
  2845  0081  2883               	goto	u2490
  2846  0082                     u2491:
  2847  0082  2888               	goto	l2091
  2848  0083                     u2490:
  2849  0083                     l2089:
  2850  0083  083D               	movf	___flmul@bexp,w
  2851  0084  1D03               	btfss	3,2
  2852  0085  2887               	goto	u2501
  2853  0086  2888               	goto	u2500
  2854  0087                     u2501:
  2855  0087  2891               	goto	l2095
  2856  0088                     u2500:
  2857  0088                     l2091:
  2858  0088  3000               	movlw	0
  2859  0089  00AD               	movwf	?___flmul+3
  2860  008A  3000               	movlw	0
  2861  008B  00AC               	movwf	?___flmul+2
  2862  008C  3000               	movlw	0
  2863  008D  00AB               	movwf	?___flmul+1
  2864  008E  3000               	movlw	0
  2865  008F  00AA               	movwf	?___flmul
  2866  0090  2B84               	goto	l648
  2867  0091                     l2095:
  2868  0091  082A               	movf	___flmul@b,w
  2869  0092  00B2               	movwf	??___flmul
  2870  0093  0832               	movf	??___flmul,w
  2871  0094  00F4               	movwf	__Umul8_16@multiplicand
  2872  0095  0830               	movf	___flmul@a+2,w
  2873  0096  120A  158A  24B1  120A  118A  	fcall	__Umul8_16
  2874  009B  0875               	movf	?__Umul8_16+1,w
  2875  009C  1283               	bcf	3,5	;RP0=0, select bank0
  2876  009D  1303               	bcf	3,6	;RP1=0, select bank0
  2877  009E  00C3               	movwf	___flmul@temp+1
  2878  009F  0874               	movf	?__Umul8_16,w
  2879  00A0  00C2               	movwf	___flmul@temp
  2880  00A1                     l2097:
  2881  00A1  0842               	movf	___flmul@temp,w
  2882  00A2  00B2               	movwf	??___flmul
  2883  00A3  01B3               	clrf	??___flmul+1
  2884  00A4  01B4               	clrf	??___flmul+2
  2885  00A5  01B5               	clrf	??___flmul+3
  2886  00A6  0835               	movf	??___flmul+3,w
  2887  00A7  00BB               	movwf	___flmul@grs+3
  2888  00A8  0834               	movf	??___flmul+2,w
  2889  00A9  00BA               	movwf	___flmul@grs+2
  2890  00AA  0833               	movf	??___flmul+1,w
  2891  00AB  00B9               	movwf	___flmul@grs+1
  2892  00AC  0832               	movf	??___flmul,w
  2893  00AD  00B8               	movwf	___flmul@grs
  2894  00AE                     l2099:
  2895  00AE  0843               	movf	___flmul@temp+1,w
  2896  00AF  00B2               	movwf	??___flmul
  2897  00B0  01B3               	clrf	??___flmul+1
  2898  00B1  01B4               	clrf	??___flmul+2
  2899  00B2  01B5               	clrf	??___flmul+3
  2900  00B3  0835               	movf	??___flmul+3,w
  2901  00B4  00C1               	movwf	___flmul@prod+3
  2902  00B5  0834               	movf	??___flmul+2,w
  2903  00B6  00C0               	movwf	___flmul@prod+2
  2904  00B7  0833               	movf	??___flmul+1,w
  2905  00B8  00BF               	movwf	___flmul@prod+1
  2906  00B9  0832               	movf	??___flmul,w
  2907  00BA  00BE               	movwf	___flmul@prod
  2908  00BB  082B               	movf	___flmul@b+1,w
  2909  00BC  00B2               	movwf	??___flmul
  2910  00BD  0832               	movf	??___flmul,w
  2911  00BE  00F4               	movwf	__Umul8_16@multiplicand
  2912  00BF  082F               	movf	___flmul@a+1,w
  2913  00C0  120A  158A  24B1  120A  118A  	fcall	__Umul8_16
  2914  00C5  0875               	movf	?__Umul8_16+1,w
  2915  00C6  1283               	bcf	3,5	;RP0=0, select bank0
  2916  00C7  1303               	bcf	3,6	;RP1=0, select bank0
  2917  00C8  00C3               	movwf	___flmul@temp+1
  2918  00C9  0874               	movf	?__Umul8_16,w
  2919  00CA  00C2               	movwf	___flmul@temp
  2920  00CB                     l2101:
  2921  00CB  0842               	movf	___flmul@temp,w
  2922  00CC  00B2               	movwf	??___flmul
  2923  00CD  01B3               	clrf	??___flmul+1
  2924  00CE  01B4               	clrf	??___flmul+2
  2925  00CF  01B5               	clrf	??___flmul+3
  2926  00D0  0832               	movf	??___flmul,w
  2927  00D1  07B8               	addwf	___flmul@grs,f
  2928  00D2  0833               	movf	??___flmul+1,w
  2929  00D3  1103               	clrz
  2930  00D4  1803               	skipnc
  2931  00D5  3E01               	addlw	1
  2932  00D6  1903               	skipnz
  2933  00D7  28D9               	goto	u2511
  2934  00D8  07B9               	addwf	___flmul@grs+1,f
  2935  00D9                     u2511:
  2936  00D9  0834               	movf	??___flmul+2,w
  2937  00DA  1103               	clrz
  2938  00DB  1803               	skipnc
  2939  00DC  3E01               	addlw	1
  2940  00DD  1903               	skipnz
  2941  00DE  28E0               	goto	u2512
  2942  00DF  07BA               	addwf	___flmul@grs+2,f
  2943  00E0                     u2512:
  2944  00E0  0835               	movf	??___flmul+3,w
  2945  00E1  1103               	clrz
  2946  00E2  1803               	skipnc
  2947  00E3  3E01               	addlw	1
  2948  00E4  1903               	skipnz
  2949  00E5  28E7               	goto	u2513
  2950  00E6  07BB               	addwf	___flmul@grs+3,f
  2951  00E7                     u2513:
  2952  00E7                     l2103:
  2953  00E7  0843               	movf	___flmul@temp+1,w
  2954  00E8  00B2               	movwf	??___flmul
  2955  00E9  01B3               	clrf	??___flmul+1
  2956  00EA  01B4               	clrf	??___flmul+2
  2957  00EB  01B5               	clrf	??___flmul+3
  2958  00EC  0832               	movf	??___flmul,w
  2959  00ED  07BE               	addwf	___flmul@prod,f
  2960  00EE  0833               	movf	??___flmul+1,w
  2961  00EF  1103               	clrz
  2962  00F0  1803               	skipnc
  2963  00F1  3E01               	addlw	1
  2964  00F2  1903               	skipnz
  2965  00F3  28F5               	goto	u2521
  2966  00F4  07BF               	addwf	___flmul@prod+1,f
  2967  00F5                     u2521:
  2968  00F5  0834               	movf	??___flmul+2,w
  2969  00F6  1103               	clrz
  2970  00F7  1803               	skipnc
  2971  00F8  3E01               	addlw	1
  2972  00F9  1903               	skipnz
  2973  00FA  28FC               	goto	u2522
  2974  00FB  07C0               	addwf	___flmul@prod+2,f
  2975  00FC                     u2522:
  2976  00FC  0835               	movf	??___flmul+3,w
  2977  00FD  1103               	clrz
  2978  00FE  1803               	skipnc
  2979  00FF  3E01               	addlw	1
  2980  0100  1903               	skipnz
  2981  0101  2903               	goto	u2523
  2982  0102  07C1               	addwf	___flmul@prod+3,f
  2983  0103                     u2523:
  2984  0103  082C               	movf	___flmul@b+2,w
  2985  0104  00B2               	movwf	??___flmul
  2986  0105  0832               	movf	??___flmul,w
  2987  0106  00F4               	movwf	__Umul8_16@multiplicand
  2988  0107  082E               	movf	___flmul@a,w
  2989  0108  120A  158A  24B1  120A  118A  	fcall	__Umul8_16
  2990  010D  0875               	movf	?__Umul8_16+1,w
  2991  010E  1283               	bcf	3,5	;RP0=0, select bank0
  2992  010F  1303               	bcf	3,6	;RP1=0, select bank0
  2993  0110  00C3               	movwf	___flmul@temp+1
  2994  0111  0874               	movf	?__Umul8_16,w
  2995  0112  00C2               	movwf	___flmul@temp
  2996  0113                     l2105:
  2997  0113  0842               	movf	___flmul@temp,w
  2998  0114  00B2               	movwf	??___flmul
  2999  0115  01B3               	clrf	??___flmul+1
  3000  0116  01B4               	clrf	??___flmul+2
  3001  0117  01B5               	clrf	??___flmul+3
  3002  0118  0832               	movf	??___flmul,w
  3003  0119  07B8               	addwf	___flmul@grs,f
  3004  011A  0833               	movf	??___flmul+1,w
  3005  011B  1103               	clrz
  3006  011C  1803               	skipnc
  3007  011D  3E01               	addlw	1
  3008  011E  1903               	skipnz
  3009  011F  2921               	goto	u2531
  3010  0120  07B9               	addwf	___flmul@grs+1,f
  3011  0121                     u2531:
  3012  0121  0834               	movf	??___flmul+2,w
  3013  0122  1103               	clrz
  3014  0123  1803               	skipnc
  3015  0124  3E01               	addlw	1
  3016  0125  1903               	skipnz
  3017  0126  2928               	goto	u2532
  3018  0127  07BA               	addwf	___flmul@grs+2,f
  3019  0128                     u2532:
  3020  0128  0835               	movf	??___flmul+3,w
  3021  0129  1103               	clrz
  3022  012A  1803               	skipnc
  3023  012B  3E01               	addlw	1
  3024  012C  1903               	skipnz
  3025  012D  292F               	goto	u2533
  3026  012E  07BB               	addwf	___flmul@grs+3,f
  3027  012F                     u2533:
  3028  012F                     l2107:
  3029  012F  0843               	movf	___flmul@temp+1,w
  3030  0130  00B2               	movwf	??___flmul
  3031  0131  01B3               	clrf	??___flmul+1
  3032  0132  01B4               	clrf	??___flmul+2
  3033  0133  01B5               	clrf	??___flmul+3
  3034  0134  0832               	movf	??___flmul,w
  3035  0135  07BE               	addwf	___flmul@prod,f
  3036  0136  0833               	movf	??___flmul+1,w
  3037  0137  1103               	clrz
  3038  0138  1803               	skipnc
  3039  0139  3E01               	addlw	1
  3040  013A  1903               	skipnz
  3041  013B  293D               	goto	u2541
  3042  013C  07BF               	addwf	___flmul@prod+1,f
  3043  013D                     u2541:
  3044  013D  0834               	movf	??___flmul+2,w
  3045  013E  1103               	clrz
  3046  013F  1803               	skipnc
  3047  0140  3E01               	addlw	1
  3048  0141  1903               	skipnz
  3049  0142  2944               	goto	u2542
  3050  0143  07C0               	addwf	___flmul@prod+2,f
  3051  0144                     u2542:
  3052  0144  0835               	movf	??___flmul+3,w
  3053  0145  1103               	clrz
  3054  0146  1803               	skipnc
  3055  0147  3E01               	addlw	1
  3056  0148  1903               	skipnz
  3057  0149  294B               	goto	u2543
  3058  014A  07C1               	addwf	___flmul@prod+3,f
  3059  014B                     u2543:
  3060  014B                     l2109:
  3061  014B  3008               	movlw	8
  3062  014C  00B2               	movwf	??___flmul
  3063  014D                     u2555:
  3064  014D  1003               	clrc
  3065  014E  0DB8               	rlf	___flmul@grs,f
  3066  014F  0DB9               	rlf	___flmul@grs+1,f
  3067  0150  0DBA               	rlf	___flmul@grs+2,f
  3068  0151  0DBB               	rlf	___flmul@grs+3,f
  3069  0152  0BB2               	decfsz	??___flmul,f
  3070  0153  294D               	goto	u2555
  3071  0154                     l2111:
  3072  0154  082B               	movf	___flmul@b+1,w
  3073  0155  00B2               	movwf	??___flmul
  3074  0156  0832               	movf	??___flmul,w
  3075  0157  00F4               	movwf	__Umul8_16@multiplicand
  3076  0158  082E               	movf	___flmul@a,w
  3077  0159  120A  158A  24B1  120A  118A  	fcall	__Umul8_16
  3078  015E  0875               	movf	?__Umul8_16+1,w
  3079  015F  1283               	bcf	3,5	;RP0=0, select bank0
  3080  0160  1303               	bcf	3,6	;RP1=0, select bank0
  3081  0161  00C3               	movwf	___flmul@temp+1
  3082  0162  0874               	movf	?__Umul8_16,w
  3083  0163  00C2               	movwf	___flmul@temp
  3084  0164                     l2113:
  3085  0164  0842               	movf	___flmul@temp,w
  3086  0165  00B2               	movwf	??___flmul
  3087  0166  0843               	movf	___flmul@temp+1,w
  3088  0167  00B3               	movwf	??___flmul+1
  3089  0168  01B4               	clrf	??___flmul+2
  3090  0169  01B5               	clrf	??___flmul+3
  3091  016A  0832               	movf	??___flmul,w
  3092  016B  07B8               	addwf	___flmul@grs,f
  3093  016C  0833               	movf	??___flmul+1,w
  3094  016D  1103               	clrz
  3095  016E  1803               	skipnc
  3096  016F  3E01               	addlw	1
  3097  0170  1903               	skipnz
  3098  0171  2973               	goto	u2561
  3099  0172  07B9               	addwf	___flmul@grs+1,f
  3100  0173                     u2561:
  3101  0173  0834               	movf	??___flmul+2,w
  3102  0174  1103               	clrz
  3103  0175  1803               	skipnc
  3104  0176  3E01               	addlw	1
  3105  0177  1903               	skipnz
  3106  0178  297A               	goto	u2562
  3107  0179  07BA               	addwf	___flmul@grs+2,f
  3108  017A                     u2562:
  3109  017A  0835               	movf	??___flmul+3,w
  3110  017B  1103               	clrz
  3111  017C  1803               	skipnc
  3112  017D  3E01               	addlw	1
  3113  017E  1903               	skipnz
  3114  017F  2981               	goto	u2563
  3115  0180  07BB               	addwf	___flmul@grs+3,f
  3116  0181                     u2563:
  3117  0181                     l2115:
  3118  0181  082A               	movf	___flmul@b,w
  3119  0182  00B2               	movwf	??___flmul
  3120  0183  0832               	movf	??___flmul,w
  3121  0184  00F4               	movwf	__Umul8_16@multiplicand
  3122  0185  082F               	movf	___flmul@a+1,w
  3123  0186  120A  158A  24B1  120A  118A  	fcall	__Umul8_16
  3124  018B  0875               	movf	?__Umul8_16+1,w
  3125  018C  1283               	bcf	3,5	;RP0=0, select bank0
  3126  018D  1303               	bcf	3,6	;RP1=0, select bank0
  3127  018E  00C3               	movwf	___flmul@temp+1
  3128  018F  0874               	movf	?__Umul8_16,w
  3129  0190  00C2               	movwf	___flmul@temp
  3130  0191                     l2117:
  3131  0191  0842               	movf	___flmul@temp,w
  3132  0192  00B2               	movwf	??___flmul
  3133  0193  0843               	movf	___flmul@temp+1,w
  3134  0194  00B3               	movwf	??___flmul+1
  3135  0195  01B4               	clrf	??___flmul+2
  3136  0196  01B5               	clrf	??___flmul+3
  3137  0197  0832               	movf	??___flmul,w
  3138  0198  07B8               	addwf	___flmul@grs,f
  3139  0199  0833               	movf	??___flmul+1,w
  3140  019A  1103               	clrz
  3141  019B  1803               	skipnc
  3142  019C  3E01               	addlw	1
  3143  019D  1903               	skipnz
  3144  019E  29A0               	goto	u2571
  3145  019F  07B9               	addwf	___flmul@grs+1,f
  3146  01A0                     u2571:
  3147  01A0  0834               	movf	??___flmul+2,w
  3148  01A1  1103               	clrz
  3149  01A2  1803               	skipnc
  3150  01A3  3E01               	addlw	1
  3151  01A4  1903               	skipnz
  3152  01A5  29A7               	goto	u2572
  3153  01A6  07BA               	addwf	___flmul@grs+2,f
  3154  01A7                     u2572:
  3155  01A7  0835               	movf	??___flmul+3,w
  3156  01A8  1103               	clrz
  3157  01A9  1803               	skipnc
  3158  01AA  3E01               	addlw	1
  3159  01AB  1903               	skipnz
  3160  01AC  29AE               	goto	u2573
  3161  01AD  07BB               	addwf	___flmul@grs+3,f
  3162  01AE                     u2573:
  3163  01AE                     l2119:
  3164  01AE  3008               	movlw	8
  3165  01AF  00B2               	movwf	??___flmul
  3166  01B0                     u2585:
  3167  01B0  1003               	clrc
  3168  01B1  0DB8               	rlf	___flmul@grs,f
  3169  01B2  0DB9               	rlf	___flmul@grs+1,f
  3170  01B3  0DBA               	rlf	___flmul@grs+2,f
  3171  01B4  0DBB               	rlf	___flmul@grs+3,f
  3172  01B5  0BB2               	decfsz	??___flmul,f
  3173  01B6  29B0               	goto	u2585
  3174  01B7  082A               	movf	___flmul@b,w
  3175  01B8  00B2               	movwf	??___flmul
  3176  01B9  0832               	movf	??___flmul,w
  3177  01BA  00F4               	movwf	__Umul8_16@multiplicand
  3178  01BB  082E               	movf	___flmul@a,w
  3179  01BC  120A  158A  24B1  120A  118A  	fcall	__Umul8_16
  3180  01C1  0875               	movf	?__Umul8_16+1,w
  3181  01C2  1283               	bcf	3,5	;RP0=0, select bank0
  3182  01C3  1303               	bcf	3,6	;RP1=0, select bank0
  3183  01C4  00C3               	movwf	___flmul@temp+1
  3184  01C5  0874               	movf	?__Umul8_16,w
  3185  01C6  00C2               	movwf	___flmul@temp
  3186  01C7                     l2121:
  3187  01C7  0842               	movf	___flmul@temp,w
  3188  01C8  00B2               	movwf	??___flmul
  3189  01C9  0843               	movf	___flmul@temp+1,w
  3190  01CA  00B3               	movwf	??___flmul+1
  3191  01CB  01B4               	clrf	??___flmul+2
  3192  01CC  01B5               	clrf	??___flmul+3
  3193  01CD  0832               	movf	??___flmul,w
  3194  01CE  07B8               	addwf	___flmul@grs,f
  3195  01CF  0833               	movf	??___flmul+1,w
  3196  01D0  1103               	clrz
  3197  01D1  1803               	skipnc
  3198  01D2  3E01               	addlw	1
  3199  01D3  1903               	skipnz
  3200  01D4  29D6               	goto	u2591
  3201  01D5  07B9               	addwf	___flmul@grs+1,f
  3202  01D6                     u2591:
  3203  01D6  0834               	movf	??___flmul+2,w
  3204  01D7  1103               	clrz
  3205  01D8  1803               	skipnc
  3206  01D9  3E01               	addlw	1
  3207  01DA  1903               	skipnz
  3208  01DB  29DD               	goto	u2592
  3209  01DC  07BA               	addwf	___flmul@grs+2,f
  3210  01DD                     u2592:
  3211  01DD  0835               	movf	??___flmul+3,w
  3212  01DE  1103               	clrz
  3213  01DF  1803               	skipnc
  3214  01E0  3E01               	addlw	1
  3215  01E1  1903               	skipnz
  3216  01E2  29E4               	goto	u2593
  3217  01E3  07BB               	addwf	___flmul@grs+3,f
  3218  01E4                     u2593:
  3219  01E4                     l2123:
  3220  01E4  082B               	movf	___flmul@b+1,w
  3221  01E5  00B2               	movwf	??___flmul
  3222  01E6  0832               	movf	??___flmul,w
  3223  01E7  00F4               	movwf	__Umul8_16@multiplicand
  3224  01E8  0830               	movf	___flmul@a+2,w
  3225  01E9  120A  158A  24B1  120A  118A  	fcall	__Umul8_16
  3226  01EE  0875               	movf	?__Umul8_16+1,w
  3227  01EF  1283               	bcf	3,5	;RP0=0, select bank0
  3228  01F0  1303               	bcf	3,6	;RP1=0, select bank0
  3229  01F1  00C3               	movwf	___flmul@temp+1
  3230  01F2  0874               	movf	?__Umul8_16,w
  3231  01F3  00C2               	movwf	___flmul@temp
  3232  01F4  0842               	movf	___flmul@temp,w
  3233  01F5  00B2               	movwf	??___flmul
  3234  01F6  0843               	movf	___flmul@temp+1,w
  3235  01F7  00B3               	movwf	??___flmul+1
  3236  01F8  01B4               	clrf	??___flmul+2
  3237  01F9  01B5               	clrf	??___flmul+3
  3238  01FA  0832               	movf	??___flmul,w
  3239  01FB  07BE               	addwf	___flmul@prod,f
  3240  01FC  0833               	movf	??___flmul+1,w
  3241  01FD  1103               	clrz
  3242  01FE  1803               	skipnc
  3243  01FF  3E01               	addlw	1
  3244  0200  1903               	skipnz
  3245  0201  2A03               	goto	u2601
  3246  0202  07BF               	addwf	___flmul@prod+1,f
  3247  0203                     u2601:
  3248  0203  0834               	movf	??___flmul+2,w
  3249  0204  1103               	clrz
  3250  0205  1803               	skipnc
  3251  0206  3E01               	addlw	1
  3252  0207  1903               	skipnz
  3253  0208  2A0A               	goto	u2602
  3254  0209  07C0               	addwf	___flmul@prod+2,f
  3255  020A                     u2602:
  3256  020A  0835               	movf	??___flmul+3,w
  3257  020B  1103               	clrz
  3258  020C  1803               	skipnc
  3259  020D  3E01               	addlw	1
  3260  020E  1903               	skipnz
  3261  020F  2A11               	goto	u2603
  3262  0210  07C1               	addwf	___flmul@prod+3,f
  3263  0211                     u2603:
  3264  0211                     l2125:
  3265  0211  082C               	movf	___flmul@b+2,w
  3266  0212  00B2               	movwf	??___flmul
  3267  0213  0832               	movf	??___flmul,w
  3268  0214  00F4               	movwf	__Umul8_16@multiplicand
  3269  0215  082F               	movf	___flmul@a+1,w
  3270  0216  120A  158A  24B1  120A  118A  	fcall	__Umul8_16
  3271  021B  0875               	movf	?__Umul8_16+1,w
  3272  021C  1283               	bcf	3,5	;RP0=0, select bank0
  3273  021D  1303               	bcf	3,6	;RP1=0, select bank0
  3274  021E  00C3               	movwf	___flmul@temp+1
  3275  021F  0874               	movf	?__Umul8_16,w
  3276  0220  00C2               	movwf	___flmul@temp
  3277  0221                     l2127:
  3278  0221  0842               	movf	___flmul@temp,w
  3279  0222  00B2               	movwf	??___flmul
  3280  0223  0843               	movf	___flmul@temp+1,w
  3281  0224  00B3               	movwf	??___flmul+1
  3282  0225  01B4               	clrf	??___flmul+2
  3283  0226  01B5               	clrf	??___flmul+3
  3284  0227  0832               	movf	??___flmul,w
  3285  0228  07BE               	addwf	___flmul@prod,f
  3286  0229  0833               	movf	??___flmul+1,w
  3287  022A  1103               	clrz
  3288  022B  1803               	skipnc
  3289  022C  3E01               	addlw	1
  3290  022D  1903               	skipnz
  3291  022E  2A30               	goto	u2611
  3292  022F  07BF               	addwf	___flmul@prod+1,f
  3293  0230                     u2611:
  3294  0230  0834               	movf	??___flmul+2,w
  3295  0231  1103               	clrz
  3296  0232  1803               	skipnc
  3297  0233  3E01               	addlw	1
  3298  0234  1903               	skipnz
  3299  0235  2A37               	goto	u2612
  3300  0236  07C0               	addwf	___flmul@prod+2,f
  3301  0237                     u2612:
  3302  0237  0835               	movf	??___flmul+3,w
  3303  0238  1103               	clrz
  3304  0239  1803               	skipnc
  3305  023A  3E01               	addlw	1
  3306  023B  1903               	skipnz
  3307  023C  2A3E               	goto	u2613
  3308  023D  07C1               	addwf	___flmul@prod+3,f
  3309  023E                     u2613:
  3310  023E  082C               	movf	___flmul@b+2,w
  3311  023F  00B2               	movwf	??___flmul
  3312  0240  0832               	movf	??___flmul,w
  3313  0241  00F4               	movwf	__Umul8_16@multiplicand
  3314  0242  0830               	movf	___flmul@a+2,w
  3315  0243  120A  158A  24B1  120A  118A  	fcall	__Umul8_16
  3316  0248  0875               	movf	?__Umul8_16+1,w
  3317  0249  1283               	bcf	3,5	;RP0=0, select bank0
  3318  024A  1303               	bcf	3,6	;RP1=0, select bank0
  3319  024B  00C3               	movwf	___flmul@temp+1
  3320  024C  0874               	movf	?__Umul8_16,w
  3321  024D  00C2               	movwf	___flmul@temp
  3322  024E                     l2129:
  3323  024E  0842               	movf	___flmul@temp,w
  3324  024F  00B2               	movwf	??___flmul
  3325  0250  0843               	movf	___flmul@temp+1,w
  3326  0251  00B3               	movwf	??___flmul+1
  3327  0252  01B4               	clrf	??___flmul+2
  3328  0253  01B5               	clrf	??___flmul+3
  3329  0254  3008               	movlw	8
  3330  0255                     u2625:
  3331  0255  1003               	clrc
  3332  0256  0DB2               	rlf	??___flmul,f
  3333  0257  0DB3               	rlf	??___flmul+1,f
  3334  0258  0DB4               	rlf	??___flmul+2,f
  3335  0259  0DB5               	rlf	??___flmul+3,f
  3336  025A                     u2620:
  3337  025A  3EFF               	addlw	-1
  3338  025B  1D03               	skipz
  3339  025C  2A55               	goto	u2625
  3340  025D  0832               	movf	??___flmul,w
  3341  025E  07BE               	addwf	___flmul@prod,f
  3342  025F  0833               	movf	??___flmul+1,w
  3343  0260  1103               	clrz
  3344  0261  1803               	skipnc
  3345  0262  3E01               	addlw	1
  3346  0263  1903               	skipnz
  3347  0264  2A66               	goto	u2631
  3348  0265  07BF               	addwf	___flmul@prod+1,f
  3349  0266                     u2631:
  3350  0266  0834               	movf	??___flmul+2,w
  3351  0267  1103               	clrz
  3352  0268  1803               	skipnc
  3353  0269  3E01               	addlw	1
  3354  026A  1903               	skipnz
  3355  026B  2A6D               	goto	u2632
  3356  026C  07C0               	addwf	___flmul@prod+2,f
  3357  026D                     u2632:
  3358  026D  0835               	movf	??___flmul+3,w
  3359  026E  1103               	clrz
  3360  026F  1803               	skipnc
  3361  0270  3E01               	addlw	1
  3362  0271  1903               	skipnz
  3363  0272  2A74               	goto	u2633
  3364  0273  07C1               	addwf	___flmul@prod+3,f
  3365  0274                     u2633:
  3366  0274                     l2131:
  3367  0274  0838               	movf	___flmul@grs,w
  3368  0275  00B2               	movwf	??___flmul
  3369  0276  0839               	movf	___flmul@grs+1,w
  3370  0277  00B3               	movwf	??___flmul+1
  3371  0278  083A               	movf	___flmul@grs+2,w
  3372  0279  00B4               	movwf	??___flmul+2
  3373  027A  083B               	movf	___flmul@grs+3,w
  3374  027B  00B5               	movwf	??___flmul+3
  3375  027C  3018               	movlw	24
  3376  027D                     u2645:
  3377  027D  1003               	clrc
  3378  027E  0CB5               	rrf	??___flmul+3,f
  3379  027F  0CB4               	rrf	??___flmul+2,f
  3380  0280  0CB3               	rrf	??___flmul+1,f
  3381  0281  0CB2               	rrf	??___flmul,f
  3382  0282                     u2640:
  3383  0282  3EFF               	addlw	-1
  3384  0283  1D03               	skipz
  3385  0284  2A7D               	goto	u2645
  3386  0285  0832               	movf	??___flmul,w
  3387  0286  07BE               	addwf	___flmul@prod,f
  3388  0287  0833               	movf	??___flmul+1,w
  3389  0288  1103               	clrz
  3390  0289  1803               	skipnc
  3391  028A  3E01               	addlw	1
  3392  028B  1903               	skipnz
  3393  028C  2A8E               	goto	u2651
  3394  028D  07BF               	addwf	___flmul@prod+1,f
  3395  028E                     u2651:
  3396  028E  0834               	movf	??___flmul+2,w
  3397  028F  1103               	clrz
  3398  0290  1803               	skipnc
  3399  0291  3E01               	addlw	1
  3400  0292  1903               	skipnz
  3401  0293  2A95               	goto	u2652
  3402  0294  07C0               	addwf	___flmul@prod+2,f
  3403  0295                     u2652:
  3404  0295  0835               	movf	??___flmul+3,w
  3405  0296  1103               	clrz
  3406  0297  1803               	skipnc
  3407  0298  3E01               	addlw	1
  3408  0299  1903               	skipnz
  3409  029A  2A9C               	goto	u2653
  3410  029B  07C1               	addwf	___flmul@prod+3,f
  3411  029C                     u2653:
  3412  029C                     l2133:
  3413  029C  3008               	movlw	8
  3414  029D  00B2               	movwf	??___flmul
  3415  029E                     u2665:
  3416  029E  1003               	clrc
  3417  029F  0DB8               	rlf	___flmul@grs,f
  3418  02A0  0DB9               	rlf	___flmul@grs+1,f
  3419  02A1  0DBA               	rlf	___flmul@grs+2,f
  3420  02A2  0DBB               	rlf	___flmul@grs+3,f
  3421  02A3  0BB2               	decfsz	??___flmul,f
  3422  02A4  2A9E               	goto	u2665
  3423  02A5                     l2135:
  3424  02A5  083D               	movf	___flmul@bexp,w
  3425  02A6  073C               	addwf	___flmul@aexp,w
  3426  02A7  00B2               	movwf	??___flmul
  3427  02A8  01B3               	clrf	??___flmul+1
  3428  02A9  0DB3               	rlf	??___flmul+1,f
  3429  02AA  0832               	movf	??___flmul,w
  3430  02AB  3E82               	addlw	130
  3431  02AC  00C2               	movwf	___flmul@temp
  3432  02AD  0833               	movf	??___flmul+1,w
  3433  02AE  1803               	skipnc
  3434  02AF  3E01               	addlw	1
  3435  02B0  3EFF               	addlw	255
  3436  02B1  00C3               	movwf	___flmul@temp+1
  3437  02B2  2AD0               	goto	l2147
  3438  02B3                     l2137:
  3439  02B3  3001               	movlw	1
  3440  02B4  00B2               	movwf	??___flmul
  3441  02B5                     u2675:
  3442  02B5  1003               	clrc
  3443  02B6  0DBE               	rlf	___flmul@prod,f
  3444  02B7  0DBF               	rlf	___flmul@prod+1,f
  3445  02B8  0DC0               	rlf	___flmul@prod+2,f
  3446  02B9  0DC1               	rlf	___flmul@prod+3,f
  3447  02BA  0BB2               	decfsz	??___flmul,f
  3448  02BB  2AB5               	goto	u2675
  3449  02BC                     l2139:
  3450  02BC  1FBB               	btfss	___flmul@grs+3,7
  3451  02BD  2ABF               	goto	u2681
  3452  02BE  2AC0               	goto	u2680
  3453  02BF                     u2681:
  3454  02BF  2AC1               	goto	l2143
  3455  02C0                     u2680:
  3456  02C0                     l2141:
  3457  02C0  143E               	bsf	___flmul@prod,0
  3458  02C1                     l2143:
  3459  02C1  3001               	movlw	1
  3460  02C2  00B2               	movwf	??___flmul
  3461  02C3                     u2695:
  3462  02C3  1003               	clrc
  3463  02C4  0DB8               	rlf	___flmul@grs,f
  3464  02C5  0DB9               	rlf	___flmul@grs+1,f
  3465  02C6  0DBA               	rlf	___flmul@grs+2,f
  3466  02C7  0DBB               	rlf	___flmul@grs+3,f
  3467  02C8  0BB2               	decfsz	??___flmul,f
  3468  02C9  2AC3               	goto	u2695
  3469  02CA                     l2145:
  3470  02CA  30FF               	movlw	255
  3471  02CB  07C2               	addwf	___flmul@temp,f
  3472  02CC  1803               	skipnc
  3473  02CD  0AC3               	incf	___flmul@temp+1,f
  3474  02CE  30FF               	movlw	255
  3475  02CF  07C3               	addwf	___flmul@temp+1,f
  3476  02D0                     l2147:
  3477  02D0  1FC0               	btfss	___flmul@prod+2,7
  3478  02D1  2AD3               	goto	u2701
  3479  02D2  2AD4               	goto	u2700
  3480  02D3                     u2701:
  3481  02D3  2AB3               	goto	l2137
  3482  02D4                     u2700:
  3483  02D4                     l2149:
  3484  02D4  01BC               	clrf	___flmul@aexp
  3485  02D5                     l2151:
  3486  02D5  1FBB               	btfss	___flmul@grs+3,7
  3487  02D6  2AD8               	goto	u2711
  3488  02D7  2AD9               	goto	u2710
  3489  02D8                     u2711:
  3490  02D8  2AF5               	goto	l2159
  3491  02D9                     u2710:
  3492  02D9                     l2153:
  3493  02D9  30FF               	movlw	255
  3494  02DA  0538               	andwf	___flmul@grs,w
  3495  02DB  00B2               	movwf	??___flmul
  3496  02DC  30FF               	movlw	255
  3497  02DD  0539               	andwf	___flmul@grs+1,w
  3498  02DE  00B3               	movwf	??___flmul+1
  3499  02DF  30FF               	movlw	255
  3500  02E0  053A               	andwf	___flmul@grs+2,w
  3501  02E1  00B4               	movwf	??___flmul+2
  3502  02E2  307F               	movlw	127
  3503  02E3  053B               	andwf	___flmul@grs+3,w
  3504  02E4  00B5               	movwf	??___flmul+3
  3505  02E5  0835               	movf	??___flmul+3,w
  3506  02E6  0434               	iorwf	??___flmul+2,w
  3507  02E7  0433               	iorwf	??___flmul+1,w
  3508  02E8  0432               	iorwf	??___flmul,w
  3509  02E9  1903               	skipnz
  3510  02EA  2AEC               	goto	u2721
  3511  02EB  2AED               	goto	u2720
  3512  02EC                     u2721:
  3513  02EC  2AF0               	goto	l654
  3514  02ED                     u2720:
  3515  02ED                     l2155:
  3516  02ED  01BC               	clrf	___flmul@aexp
  3517  02EE  0ABC               	incf	___flmul@aexp,f
  3518  02EF  2AF5               	goto	l2159
  3519  02F0                     l654:
  3520  02F0  1C3E               	btfss	___flmul@prod,0
  3521  02F1  2AF3               	goto	u2731
  3522  02F2  2AF4               	goto	u2730
  3523  02F3                     u2731:
  3524  02F3  2AF5               	goto	l2159
  3525  02F4                     u2730:
  3526  02F4  2AED               	goto	l2155
  3527  02F5                     l2159:
  3528  02F5  083C               	movf	___flmul@aexp,w
  3529  02F6  1903               	btfsc	3,2
  3530  02F7  2AF9               	goto	u2741
  3531  02F8  2AFA               	goto	u2740
  3532  02F9                     u2741:
  3533  02F9  2B2B               	goto	l2169
  3534  02FA                     u2740:
  3535  02FA                     l2161:
  3536  02FA  3001               	movlw	1
  3537  02FB  07BE               	addwf	___flmul@prod,f
  3538  02FC  3000               	movlw	0
  3539  02FD  1803               	skipnc
  3540  02FE  3001               	movlw	1
  3541  02FF  07BF               	addwf	___flmul@prod+1,f
  3542  0300  3000               	movlw	0
  3543  0301  1803               	skipnc
  3544  0302  3001               	movlw	1
  3545  0303  07C0               	addwf	___flmul@prod+2,f
  3546  0304  3000               	movlw	0
  3547  0305  1803               	skipnc
  3548  0306  3001               	movlw	1
  3549  0307  07C1               	addwf	___flmul@prod+3,f
  3550  0308                     l2163:
  3551  0308  1C41               	btfss	___flmul@prod+3,0
  3552  0309  2B0B               	goto	u2751
  3553  030A  2B0C               	goto	u2750
  3554  030B                     u2751:
  3555  030B  2B2B               	goto	l2169
  3556  030C                     u2750:
  3557  030C                     l2165:
  3558  030C  083E               	movf	___flmul@prod,w
  3559  030D  00B2               	movwf	??___flmul
  3560  030E  083F               	movf	___flmul@prod+1,w
  3561  030F  00B3               	movwf	??___flmul+1
  3562  0310  0840               	movf	___flmul@prod+2,w
  3563  0311  00B4               	movwf	??___flmul+2
  3564  0312  0841               	movf	___flmul@prod+3,w
  3565  0313  00B5               	movwf	??___flmul+3
  3566  0314  3001               	movlw	1
  3567  0315  00B6               	movwf	??___flmul+4
  3568  0316                     u2765:
  3569  0316  0D35               	rlf	??___flmul+3,w
  3570  0317  0CB5               	rrf	??___flmul+3,f
  3571  0318  0CB4               	rrf	??___flmul+2,f
  3572  0319  0CB3               	rrf	??___flmul+1,f
  3573  031A  0CB2               	rrf	??___flmul,f
  3574  031B                     u2760:
  3575  031B  0BB6               	decfsz	??___flmul+4,f
  3576  031C  2B16               	goto	u2765
  3577  031D  0835               	movf	??___flmul+3,w
  3578  031E  00C1               	movwf	___flmul@prod+3
  3579  031F  0834               	movf	??___flmul+2,w
  3580  0320  00C0               	movwf	___flmul@prod+2
  3581  0321  0833               	movf	??___flmul+1,w
  3582  0322  00BF               	movwf	___flmul@prod+1
  3583  0323  0832               	movf	??___flmul,w
  3584  0324  00BE               	movwf	___flmul@prod
  3585  0325                     l2167:
  3586  0325  3001               	movlw	1
  3587  0326  07C2               	addwf	___flmul@temp,f
  3588  0327  1803               	skipnc
  3589  0328  0AC3               	incf	___flmul@temp+1,f
  3590  0329  3000               	movlw	0
  3591  032A  07C3               	addwf	___flmul@temp+1,f
  3592  032B                     l2169:
  3593  032B  0843               	movf	___flmul@temp+1,w
  3594  032C  3A80               	xorlw	128
  3595  032D  00FF               	movwf	btemp+1
  3596  032E  3080               	movlw	128
  3597  032F  027F               	subwf	btemp+1,w
  3598  0330  1D03               	skipz
  3599  0331  2B34               	goto	u2775
  3600  0332  30FF               	movlw	255
  3601  0333  0242               	subwf	___flmul@temp,w
  3602  0334                     u2775:
  3603  0334  1C03               	skipc
  3604  0335  2B37               	goto	u2771
  3605  0336  2B38               	goto	u2770
  3606  0337                     u2771:
  3607  0337  2B43               	goto	l2173
  3608  0338                     u2770:
  3609  0338                     l2171:
  3610  0338  307F               	movlw	127
  3611  0339  1283               	bcf	3,5	;RP0=0, select bank0
  3612  033A  1303               	bcf	3,6	;RP1=0, select bank0
  3613  033B  00C1               	movwf	___flmul@prod+3
  3614  033C  3080               	movlw	128
  3615  033D  00C0               	movwf	___flmul@prod+2
  3616  033E  3000               	movlw	0
  3617  033F  00BF               	movwf	___flmul@prod+1
  3618  0340  3000               	movlw	0
  3619  0341  00BE               	movwf	___flmul@prod
  3620  0342  2B78               	goto	l660
  3621  0343                     l2173:
  3622  0343  1283               	bcf	3,5	;RP0=0, select bank0
  3623  0344  1303               	bcf	3,6	;RP1=0, select bank0
  3624  0345  0843               	movf	___flmul@temp+1,w
  3625  0346  3A80               	xorlw	128
  3626  0347  00FF               	movwf	btemp+1
  3627  0348  3080               	movlw	128
  3628  0349  027F               	subwf	btemp+1,w
  3629  034A  1D03               	skipz
  3630  034B  2B4E               	goto	u2785
  3631  034C  3001               	movlw	1
  3632  034D  0242               	subwf	___flmul@temp,w
  3633  034E                     u2785:
  3634  034E  1803               	skipnc
  3635  034F  2B51               	goto	u2781
  3636  0350  2B52               	goto	u2780
  3637  0351                     u2781:
  3638  0351  2B5E               	goto	l2179
  3639  0352                     u2780:
  3640  0352                     l2175:
  3641  0352  3000               	movlw	0
  3642  0353  1283               	bcf	3,5	;RP0=0, select bank0
  3643  0354  1303               	bcf	3,6	;RP1=0, select bank0
  3644  0355  00C1               	movwf	___flmul@prod+3
  3645  0356  3000               	movlw	0
  3646  0357  00C0               	movwf	___flmul@prod+2
  3647  0358  3000               	movlw	0
  3648  0359  00BF               	movwf	___flmul@prod+1
  3649  035A  3000               	movlw	0
  3650  035B  00BE               	movwf	___flmul@prod
  3651  035C                     l2177:
  3652  035C  01B7               	clrf	___flmul@sign
  3653  035D  2B78               	goto	l660
  3654  035E                     l2179:
  3655  035E  1283               	bcf	3,5	;RP0=0, select bank0
  3656  035F  1303               	bcf	3,6	;RP1=0, select bank0
  3657  0360  0842               	movf	___flmul@temp,w
  3658  0361  00B2               	movwf	??___flmul
  3659  0362  0832               	movf	??___flmul,w
  3660  0363  00BD               	movwf	___flmul@bexp
  3661  0364  30FF               	movlw	255
  3662  0365  05BE               	andwf	___flmul@prod,f
  3663  0366  30FF               	movlw	255
  3664  0367  05BF               	andwf	___flmul@prod+1,f
  3665  0368  307F               	movlw	127
  3666  0369  05C0               	andwf	___flmul@prod+2,f
  3667  036A  3000               	movlw	0
  3668  036B  05C1               	andwf	___flmul@prod+3,f
  3669  036C                     l2181:
  3670  036C  1C3D               	btfss	___flmul@bexp,0
  3671  036D  2B6F               	goto	u2791
  3672  036E  2B70               	goto	u2790
  3673  036F                     u2791:
  3674  036F  2B71               	goto	l2185
  3675  0370                     u2790:
  3676  0370                     l2183:
  3677  0370  17C0               	bsf	___flmul@prod+2,7
  3678  0371                     l2185:
  3679  0371  083D               	movf	___flmul@bexp,w
  3680  0372  00B2               	movwf	??___flmul
  3681  0373  1003               	clrc
  3682  0374  0C32               	rrf	??___flmul,w
  3683  0375  00B3               	movwf	??___flmul+1
  3684  0376  0833               	movf	??___flmul+1,w
  3685  0377  00C1               	movwf	___flmul@prod+3
  3686  0378                     l660:
  3687  0378  0837               	movf	___flmul@sign,w
  3688  0379  00B2               	movwf	??___flmul
  3689  037A  0832               	movf	??___flmul,w
  3690  037B  04C1               	iorwf	___flmul@prod+3,f
  3691  037C                     l2187:
  3692  037C  0841               	movf	___flmul@prod+3,w
  3693  037D  00AD               	movwf	?___flmul+3
  3694  037E  0840               	movf	___flmul@prod+2,w
  3695  037F  00AC               	movwf	?___flmul+2
  3696  0380  083F               	movf	___flmul@prod+1,w
  3697  0381  00AB               	movwf	?___flmul+1
  3698  0382  083E               	movf	___flmul@prod,w
  3699  0383  00AA               	movwf	?___flmul
  3700  0384                     l648:
  3701  0384  0008               	return
  3702  0385                     __end_of___flmul:
  3703                           
  3704                           	psect	text7
  3705  0CB1                     __ptext7:	
  3706 ;; *************** function __Umul8_16 *****************
  3707 ;; Defined at:
  3708 ;;		line 4 in file "C:\Program Files\Microchip\xc8\v2.32\pic\sources\c90\common\Umul8_16.c"
  3709 ;; Parameters:    Size  Location     Type
  3710 ;;  multiplier      1    wreg     unsigned char 
  3711 ;;  multiplicand    1    4[COMMON] unsigned char 
  3712 ;; Auto vars:     Size  Location     Type
  3713 ;;  multiplier      1    4[BANK0 ] unsigned char 
  3714 ;;  word_mpld       2    2[BANK0 ] unsigned int 
  3715 ;;  product         2    0[BANK0 ] unsigned int 
  3716 ;; Return value:  Size  Location     Type
  3717 ;;                  2    4[COMMON] unsigned int 
  3718 ;; Registers used:
  3719 ;;		wreg, status,2, status,0
  3720 ;; Tracked objects:
  3721 ;;		On entry : 0/0
  3722 ;;		On exit  : 0/0
  3723 ;;		Unchanged: 0/0
  3724 ;; Data sizes:     COMMON   BANK0   BANK1   BANK3   BANK2
  3725 ;;      Params:         2       0       0       0       0
  3726 ;;      Locals:         0       5       0       0       0
  3727 ;;      Temps:          2       0       0       0       0
  3728 ;;      Totals:         4       5       0       0       0
  3729 ;;Total ram usage:        9 bytes
  3730 ;; Hardware stack levels used: 1
  3731 ;; Hardware stack levels required when called: 1
  3732 ;; This function calls:
  3733 ;;		Nothing
  3734 ;; This function is called by:
  3735 ;;		___flmul
  3736 ;; This function uses a non-reentrant model
  3737 ;;
  3738                           
  3739                           
  3740                           ;psect for function __Umul8_16
  3741  0CB1                     __Umul8_16:
  3742                           
  3743                           ;incstack = 0
  3744                           ; Regs used in __Umul8_16: [wreg+status,2+status,0]
  3745                           ;__Umul8_16@multiplier stored from wreg
  3746  0CB1  1283               	bcf	3,5	;RP0=0, select bank0
  3747  0CB2  1303               	bcf	3,6	;RP1=0, select bank0
  3748  0CB3  00A4               	movwf	__Umul8_16@multiplier
  3749  0CB4                     l1761:
  3750  0CB4  01A0               	clrf	__Umul8_16@product
  3751  0CB5  01A1               	clrf	__Umul8_16@product+1
  3752  0CB6                     l1763:
  3753  0CB6  0874               	movf	__Umul8_16@multiplicand,w
  3754  0CB7  00F6               	movwf	??__Umul8_16
  3755  0CB8  01F7               	clrf	??__Umul8_16+1
  3756  0CB9  0876               	movf	??__Umul8_16,w
  3757  0CBA  00A2               	movwf	__Umul8_16@word_mpld
  3758  0CBB  0877               	movf	??__Umul8_16+1,w
  3759  0CBC  00A3               	movwf	__Umul8_16@word_mpld+1
  3760  0CBD                     l1765:
  3761  0CBD  1C24               	btfss	__Umul8_16@multiplier,0
  3762  0CBE  2CC0               	goto	u1961
  3763  0CBF  2CC1               	goto	u1960
  3764  0CC0                     u1961:
  3765  0CC0  2CC7               	goto	l667
  3766  0CC1                     u1960:
  3767  0CC1                     l1767:
  3768  0CC1  0822               	movf	__Umul8_16@word_mpld,w
  3769  0CC2  07A0               	addwf	__Umul8_16@product,f
  3770  0CC3  1803               	skipnc
  3771  0CC4  0AA1               	incf	__Umul8_16@product+1,f
  3772  0CC5  0823               	movf	__Umul8_16@word_mpld+1,w
  3773  0CC6  07A1               	addwf	__Umul8_16@product+1,f
  3774  0CC7                     l667:
  3775  0CC7  3001               	movlw	1
  3776  0CC8                     u1975:
  3777  0CC8  1003               	clrc
  3778  0CC9  0DA2               	rlf	__Umul8_16@word_mpld,f
  3779  0CCA  0DA3               	rlf	__Umul8_16@word_mpld+1,f
  3780  0CCB  3EFF               	addlw	-1
  3781  0CCC  1D03               	skipz
  3782  0CCD  2CC8               	goto	u1975
  3783  0CCE  1003               	clrc
  3784  0CCF  0CA4               	rrf	__Umul8_16@multiplier,f
  3785  0CD0                     l1769:
  3786  0CD0  0824               	movf	__Umul8_16@multiplier,w
  3787  0CD1  1D03               	btfss	3,2
  3788  0CD2  2CD4               	goto	u1981
  3789  0CD3  2CD5               	goto	u1980
  3790  0CD4                     u1981:
  3791  0CD4  2CBD               	goto	l1765
  3792  0CD5                     u1980:
  3793  0CD5                     l1771:
  3794  0CD5  0821               	movf	__Umul8_16@product+1,w
  3795  0CD6  00F5               	movwf	?__Umul8_16+1
  3796  0CD7  0820               	movf	__Umul8_16@product,w
  3797  0CD8  00F4               	movwf	?__Umul8_16
  3798  0CD9                     l669:
  3799  0CD9  0008               	return
  3800  0CDA                     __end_of__Umul8_16:
  3801                           
  3802                           	psect	text8
  3803  0615                     __ptext8:	
  3804 ;; *************** function ___fldiv *****************
  3805 ;; Defined at:
  3806 ;;		line 8 in file "C:\Program Files\Microchip\xc8\v2.32\pic\sources\c90\common\sprcdiv.c"
  3807 ;; Parameters:    Size  Location     Type
  3808 ;;  a               4   44[BANK0 ] unsigned int 
  3809 ;;  b               4   48[BANK0 ] unsigned int 
  3810 ;; Auto vars:     Size  Location     Type
  3811 ;;  grs             4   64[BANK0 ] unsigned long 
  3812 ;;  rem             4   57[BANK0 ] unsigned long 
  3813 ;;  new_exp         2   62[BANK0 ] int 
  3814 ;;  aexp            1   69[BANK0 ] unsigned char 
  3815 ;;  bexp            1   68[BANK0 ] unsigned char 
  3816 ;;  sign            1   61[BANK0 ] unsigned char 
  3817 ;; Return value:  Size  Location     Type
  3818 ;;                  4   44[BANK0 ] unsigned char 
  3819 ;; Registers used:
  3820 ;;		wreg, status,2, status,0, btemp+1
  3821 ;; Tracked objects:
  3822 ;;		On entry : 0/0
  3823 ;;		On exit  : 0/0
  3824 ;;		Unchanged: 0/0
  3825 ;; Data sizes:     COMMON   BANK0   BANK1   BANK3   BANK2
  3826 ;;      Params:         0       8       0       0       0
  3827 ;;      Locals:         0      13       0       0       0
  3828 ;;      Temps:          0       5       0       0       0
  3829 ;;      Totals:         0      26       0       0       0
  3830 ;;Total ram usage:       26 bytes
  3831 ;; Hardware stack levels used: 1
  3832 ;; Hardware stack levels required when called: 1
  3833 ;; This function calls:
  3834 ;;		Nothing
  3835 ;; This function is called by:
  3836 ;;		_main
  3837 ;; This function uses a non-reentrant model
  3838 ;;
  3839                           
  3840                           
  3841                           ;psect for function ___fldiv
  3842  0615                     ___fldiv:
  3843  0615                     l1909:	
  3844                           ;incstack = 0
  3845                           ; Regs used in ___fldiv: [wreg+status,2+status,0+btemp+1]
  3846                           
  3847  0615  1283               	bcf	3,5	;RP0=0, select bank0
  3848  0616  1303               	bcf	3,6	;RP1=0, select bank0
  3849  0617  0853               	movf	___fldiv@b+3,w
  3850  0618  3980               	andlw	128
  3851  0619  00D4               	movwf	??___fldiv
  3852  061A  0854               	movf	??___fldiv,w
  3853  061B  00DD               	movwf	___fldiv@sign
  3854  061C                     l1911:
  3855  061C  0853               	movf	___fldiv@b+3,w
  3856  061D  00D4               	movwf	??___fldiv
  3857  061E  0754               	addwf	??___fldiv,w
  3858  061F  00D5               	movwf	??___fldiv+1
  3859  0620  0855               	movf	??___fldiv+1,w
  3860  0621  00E4               	movwf	___fldiv@bexp
  3861  0622                     l1913:
  3862  0622  1FD2               	btfss	___fldiv@b+2,7
  3863  0623  2E25               	goto	u2141
  3864  0624  2E26               	goto	u2140
  3865  0625                     u2141:
  3866  0625  2E27               	goto	l1917
  3867  0626                     u2140:
  3868  0626                     l1915:
  3869  0626  1464               	bsf	___fldiv@bexp,0
  3870  0627                     l1917:
  3871  0627  0864               	movf	___fldiv@bexp,w
  3872  0628  1903               	btfsc	3,2
  3873  0629  2E2B               	goto	u2151
  3874  062A  2E2C               	goto	u2150
  3875  062B                     u2151:
  3876  062B  2E3C               	goto	l1927
  3877  062C                     u2150:
  3878  062C                     l1919:
  3879  062C  0A64               	incf	___fldiv@bexp,w
  3880  062D  1D03               	btfss	3,2
  3881  062E  2E30               	goto	u2161
  3882  062F  2E31               	goto	u2160
  3883  0630                     u2161:
  3884  0630  2E39               	goto	l1923
  3885  0631                     u2160:
  3886  0631                     l1921:
  3887  0631  3000               	movlw	0
  3888  0632  00D3               	movwf	___fldiv@b+3
  3889  0633  3000               	movlw	0
  3890  0634  00D2               	movwf	___fldiv@b+2
  3891  0635  3000               	movlw	0
  3892  0636  00D1               	movwf	___fldiv@b+1
  3893  0637  3000               	movlw	0
  3894  0638  00D0               	movwf	___fldiv@b
  3895  0639                     l1923:
  3896  0639  17D2               	bsf	___fldiv@b+2,7
  3897  063A                     l1925:
  3898  063A  01D3               	clrf	___fldiv@b+3
  3899  063B  2E44               	goto	l1929
  3900  063C                     l1927:
  3901  063C  3000               	movlw	0
  3902  063D  00D3               	movwf	___fldiv@b+3
  3903  063E  3000               	movlw	0
  3904  063F  00D2               	movwf	___fldiv@b+2
  3905  0640  3000               	movlw	0
  3906  0641  00D1               	movwf	___fldiv@b+1
  3907  0642  3000               	movlw	0
  3908  0643  00D0               	movwf	___fldiv@b
  3909  0644                     l1929:
  3910  0644  084F               	movf	___fldiv@a+3,w
  3911  0645  3980               	andlw	128
  3912  0646  00D4               	movwf	??___fldiv
  3913  0647  0854               	movf	??___fldiv,w
  3914  0648  06DD               	xorwf	___fldiv@sign,f
  3915  0649                     l1931:
  3916  0649  084F               	movf	___fldiv@a+3,w
  3917  064A  00D4               	movwf	??___fldiv
  3918  064B  0754               	addwf	??___fldiv,w
  3919  064C  00D5               	movwf	??___fldiv+1
  3920  064D  0855               	movf	??___fldiv+1,w
  3921  064E  00E5               	movwf	___fldiv@aexp
  3922  064F                     l1933:
  3923  064F  1FCE               	btfss	___fldiv@a+2,7
  3924  0650  2E52               	goto	u2171
  3925  0651  2E53               	goto	u2170
  3926  0652                     u2171:
  3927  0652  2E54               	goto	l1937
  3928  0653                     u2170:
  3929  0653                     l1935:
  3930  0653  1465               	bsf	___fldiv@aexp,0
  3931  0654                     l1937:
  3932  0654  0865               	movf	___fldiv@aexp,w
  3933  0655  1903               	btfsc	3,2
  3934  0656  2E58               	goto	u2181
  3935  0657  2E59               	goto	u2180
  3936  0658                     u2181:
  3937  0658  2E69               	goto	l1947
  3938  0659                     u2180:
  3939  0659                     l1939:
  3940  0659  0A65               	incf	___fldiv@aexp,w
  3941  065A  1D03               	btfss	3,2
  3942  065B  2E5D               	goto	u2191
  3943  065C  2E5E               	goto	u2190
  3944  065D                     u2191:
  3945  065D  2E66               	goto	l1943
  3946  065E                     u2190:
  3947  065E                     l1941:
  3948  065E  3000               	movlw	0
  3949  065F  00CF               	movwf	___fldiv@a+3
  3950  0660  3000               	movlw	0
  3951  0661  00CE               	movwf	___fldiv@a+2
  3952  0662  3000               	movlw	0
  3953  0663  00CD               	movwf	___fldiv@a+1
  3954  0664  3000               	movlw	0
  3955  0665  00CC               	movwf	___fldiv@a
  3956  0666                     l1943:
  3957  0666  17CE               	bsf	___fldiv@a+2,7
  3958  0667                     l1945:
  3959  0667  01CF               	clrf	___fldiv@a+3
  3960  0668  2E71               	goto	l608
  3961  0669                     l1947:
  3962  0669  3000               	movlw	0
  3963  066A  00CF               	movwf	___fldiv@a+3
  3964  066B  3000               	movlw	0
  3965  066C  00CE               	movwf	___fldiv@a+2
  3966  066D  3000               	movlw	0
  3967  066E  00CD               	movwf	___fldiv@a+1
  3968  066F  3000               	movlw	0
  3969  0670  00CC               	movwf	___fldiv@a
  3970  0671                     l608:
  3971  0671  084F               	movf	___fldiv@a+3,w
  3972  0672  044E               	iorwf	___fldiv@a+2,w
  3973  0673  044D               	iorwf	___fldiv@a+1,w
  3974  0674  044C               	iorwf	___fldiv@a,w
  3975  0675  1D03               	skipz
  3976  0676  2E78               	goto	u2201
  3977  0677  2E79               	goto	u2200
  3978  0678                     u2201:
  3979  0678  2E92               	goto	l1957
  3980  0679                     u2200:
  3981  0679                     l1949:
  3982  0679  3000               	movlw	0
  3983  067A  00D3               	movwf	___fldiv@b+3
  3984  067B  3000               	movlw	0
  3985  067C  00D2               	movwf	___fldiv@b+2
  3986  067D  3000               	movlw	0
  3987  067E  00D1               	movwf	___fldiv@b+1
  3988  067F  3000               	movlw	0
  3989  0680  00D0               	movwf	___fldiv@b
  3990  0681  3080               	movlw	128
  3991  0682  04D2               	iorwf	___fldiv@b+2,f
  3992  0683  307F               	movlw	127
  3993  0684  04D3               	iorwf	___fldiv@b+3,f
  3994  0685                     l1951:
  3995  0685  085D               	movf	___fldiv@sign,w
  3996  0686  00D4               	movwf	??___fldiv
  3997  0687  0854               	movf	??___fldiv,w
  3998  0688  04D3               	iorwf	___fldiv@b+3,f
  3999  0689                     l1953:
  4000  0689  0853               	movf	___fldiv@b+3,w
  4001  068A  00CF               	movwf	?___fldiv+3
  4002  068B  0852               	movf	___fldiv@b+2,w
  4003  068C  00CE               	movwf	?___fldiv+2
  4004  068D  0851               	movf	___fldiv@b+1,w
  4005  068E  00CD               	movwf	?___fldiv+1
  4006  068F  0850               	movf	___fldiv@b,w
  4007  0690  00CC               	movwf	?___fldiv
  4008  0691  2FF1               	goto	l610
  4009  0692                     l1957:
  4010  0692  0864               	movf	___fldiv@bexp,w
  4011  0693  1D03               	btfss	3,2
  4012  0694  2E96               	goto	u2211
  4013  0695  2E97               	goto	u2210
  4014  0696                     u2211:
  4015  0696  2EA0               	goto	l1963
  4016  0697                     u2210:
  4017  0697                     l1959:
  4018  0697  3000               	movlw	0
  4019  0698  00CF               	movwf	?___fldiv+3
  4020  0699  3000               	movlw	0
  4021  069A  00CE               	movwf	?___fldiv+2
  4022  069B  3000               	movlw	0
  4023  069C  00CD               	movwf	?___fldiv+1
  4024  069D  3000               	movlw	0
  4025  069E  00CC               	movwf	?___fldiv
  4026  069F  2FF1               	goto	l610
  4027  06A0                     l1963:
  4028  06A0  0864               	movf	___fldiv@bexp,w
  4029  06A1  00D4               	movwf	??___fldiv
  4030  06A2  01D5               	clrf	??___fldiv+1
  4031  06A3  0855               	movf	??___fldiv+1,w
  4032  06A4  00D7               	movwf	??___fldiv+3
  4033  06A5  0865               	movf	___fldiv@aexp,w
  4034  06A6  0254               	subwf	??___fldiv,w
  4035  06A7  00D6               	movwf	??___fldiv+2
  4036  06A8  1C03               	skipc
  4037  06A9  03D7               	decf	??___fldiv+3,f
  4038  06AA  0856               	movf	??___fldiv+2,w
  4039  06AB  3E7F               	addlw	127
  4040  06AC  00DE               	movwf	___fldiv@new_exp
  4041  06AD  0857               	movf	??___fldiv+3,w
  4042  06AE  1803               	skipnc
  4043  06AF  3E01               	addlw	1
  4044  06B0  3E00               	addlw	0
  4045  06B1  00DF               	movwf	___fldiv@new_exp+1
  4046  06B2                     l1965:
  4047  06B2  0853               	movf	___fldiv@b+3,w
  4048  06B3  00DC               	movwf	___fldiv@rem+3
  4049  06B4  0852               	movf	___fldiv@b+2,w
  4050  06B5  00DB               	movwf	___fldiv@rem+2
  4051  06B6  0851               	movf	___fldiv@b+1,w
  4052  06B7  00DA               	movwf	___fldiv@rem+1
  4053  06B8  0850               	movf	___fldiv@b,w
  4054  06B9  00D9               	movwf	___fldiv@rem
  4055  06BA                     l1967:
  4056  06BA  3000               	movlw	0
  4057  06BB  00D3               	movwf	___fldiv@b+3
  4058  06BC  3000               	movlw	0
  4059  06BD  00D2               	movwf	___fldiv@b+2
  4060  06BE  3000               	movlw	0
  4061  06BF  00D1               	movwf	___fldiv@b+1
  4062  06C0  3000               	movlw	0
  4063  06C1  00D0               	movwf	___fldiv@b
  4064  06C2                     l1969:
  4065  06C2  3000               	movlw	0
  4066  06C3  00E3               	movwf	___fldiv@grs+3
  4067  06C4  3000               	movlw	0
  4068  06C5  00E2               	movwf	___fldiv@grs+2
  4069  06C6  3000               	movlw	0
  4070  06C7  00E1               	movwf	___fldiv@grs+1
  4071  06C8  3000               	movlw	0
  4072  06C9  00E0               	movwf	___fldiv@grs
  4073  06CA                     l1971:
  4074  06CA  01E5               	clrf	___fldiv@aexp
  4075  06CB  2F16               	goto	l1991
  4076  06CC                     l1973:
  4077  06CC  0865               	movf	___fldiv@aexp,w
  4078  06CD  1903               	btfsc	3,2
  4079  06CE  2ED0               	goto	u2221
  4080  06CF  2ED1               	goto	u2220
  4081  06D0                     u2221:
  4082  06D0  2EF1               	goto	l1983
  4083  06D1                     u2220:
  4084  06D1                     l1975:
  4085  06D1  3001               	movlw	1
  4086  06D2  00D4               	movwf	??___fldiv
  4087  06D3                     u2235:
  4088  06D3  1003               	clrc
  4089  06D4  0DD9               	rlf	___fldiv@rem,f
  4090  06D5  0DDA               	rlf	___fldiv@rem+1,f
  4091  06D6  0DDB               	rlf	___fldiv@rem+2,f
  4092  06D7  0DDC               	rlf	___fldiv@rem+3,f
  4093  06D8  0BD4               	decfsz	??___fldiv,f
  4094  06D9  2ED3               	goto	u2235
  4095  06DA  3001               	movlw	1
  4096  06DB  00D4               	movwf	??___fldiv
  4097  06DC                     u2245:
  4098  06DC  1003               	clrc
  4099  06DD  0DD0               	rlf	___fldiv@b,f
  4100  06DE  0DD1               	rlf	___fldiv@b+1,f
  4101  06DF  0DD2               	rlf	___fldiv@b+2,f
  4102  06E0  0DD3               	rlf	___fldiv@b+3,f
  4103  06E1  0BD4               	decfsz	??___fldiv,f
  4104  06E2  2EDC               	goto	u2245
  4105  06E3                     l1977:
  4106  06E3  1FE3               	btfss	___fldiv@grs+3,7
  4107  06E4  2EE6               	goto	u2251
  4108  06E5  2EE7               	goto	u2250
  4109  06E6                     u2251:
  4110  06E6  2EE8               	goto	l1981
  4111  06E7                     u2250:
  4112  06E7                     l1979:
  4113  06E7  1450               	bsf	___fldiv@b,0
  4114  06E8                     l1981:
  4115  06E8  3001               	movlw	1
  4116  06E9  00D4               	movwf	??___fldiv
  4117  06EA                     u2265:
  4118  06EA  1003               	clrc
  4119  06EB  0DE0               	rlf	___fldiv@grs,f
  4120  06EC  0DE1               	rlf	___fldiv@grs+1,f
  4121  06ED  0DE2               	rlf	___fldiv@grs+2,f
  4122  06EE  0DE3               	rlf	___fldiv@grs+3,f
  4123  06EF  0BD4               	decfsz	??___fldiv,f
  4124  06F0  2EEA               	goto	u2265
  4125  06F1                     l1983:
  4126  06F1  084F               	movf	___fldiv@a+3,w
  4127  06F2  025C               	subwf	___fldiv@rem+3,w
  4128  06F3  1D03               	skipz
  4129  06F4  2EFF               	goto	u2275
  4130  06F5  084E               	movf	___fldiv@a+2,w
  4131  06F6  025B               	subwf	___fldiv@rem+2,w
  4132  06F7  1D03               	skipz
  4133  06F8  2EFF               	goto	u2275
  4134  06F9  084D               	movf	___fldiv@a+1,w
  4135  06FA  025A               	subwf	___fldiv@rem+1,w
  4136  06FB  1D03               	skipz
  4137  06FC  2EFF               	goto	u2275
  4138  06FD  084C               	movf	___fldiv@a,w
  4139  06FE  0259               	subwf	___fldiv@rem,w
  4140  06FF                     u2275:
  4141  06FF  1C03               	skipc
  4142  0700  2F02               	goto	u2271
  4143  0701  2F03               	goto	u2270
  4144  0702                     u2271:
  4145  0702  2F12               	goto	l1989
  4146  0703                     u2270:
  4147  0703                     l1985:
  4148  0703  1763               	bsf	___fldiv@grs+3,6
  4149  0704                     l1987:
  4150  0704  084C               	movf	___fldiv@a,w
  4151  0705  02D9               	subwf	___fldiv@rem,f
  4152  0706  084D               	movf	___fldiv@a+1,w
  4153  0707  1C03               	skipc
  4154  0708  0F4D               	incfsz	___fldiv@a+1,w
  4155  0709  02DA               	subwf	___fldiv@rem+1,f
  4156  070A  084E               	movf	___fldiv@a+2,w
  4157  070B  1C03               	skipc
  4158  070C  0F4E               	incfsz	___fldiv@a+2,w
  4159  070D  02DB               	subwf	___fldiv@rem+2,f
  4160  070E  084F               	movf	___fldiv@a+3,w
  4161  070F  1C03               	skipc
  4162  0710  0F4F               	incfsz	___fldiv@a+3,w
  4163  0711  02DC               	subwf	___fldiv@rem+3,f
  4164  0712                     l1989:
  4165  0712  3001               	movlw	1
  4166  0713  00D4               	movwf	??___fldiv
  4167  0714  0854               	movf	??___fldiv,w
  4168  0715  07E5               	addwf	___fldiv@aexp,f
  4169  0716                     l1991:
  4170  0716  301A               	movlw	26
  4171  0717  0265               	subwf	___fldiv@aexp,w
  4172  0718  1C03               	skipc
  4173  0719  2F1B               	goto	u2281
  4174  071A  2F1C               	goto	u2280
  4175  071B                     u2281:
  4176  071B  2ECC               	goto	l1973
  4177  071C                     u2280:
  4178  071C                     l1993:
  4179  071C  085C               	movf	___fldiv@rem+3,w
  4180  071D  045B               	iorwf	___fldiv@rem+2,w
  4181  071E  045A               	iorwf	___fldiv@rem+1,w
  4182  071F  0459               	iorwf	___fldiv@rem,w
  4183  0720  1903               	skipnz
  4184  0721  2F23               	goto	u2291
  4185  0722  2F24               	goto	u2290
  4186  0723                     u2291:
  4187  0723  2F43               	goto	l2007
  4188  0724                     u2290:
  4189  0724                     l1995:
  4190  0724  1460               	bsf	___fldiv@grs,0
  4191  0725  2F43               	goto	l2007
  4192  0726                     l1997:
  4193  0726  3001               	movlw	1
  4194  0727  00D4               	movwf	??___fldiv
  4195  0728                     u2305:
  4196  0728  1003               	clrc
  4197  0729  0DD0               	rlf	___fldiv@b,f
  4198  072A  0DD1               	rlf	___fldiv@b+1,f
  4199  072B  0DD2               	rlf	___fldiv@b+2,f
  4200  072C  0DD3               	rlf	___fldiv@b+3,f
  4201  072D  0BD4               	decfsz	??___fldiv,f
  4202  072E  2F28               	goto	u2305
  4203  072F                     l1999:
  4204  072F  1FE3               	btfss	___fldiv@grs+3,7
  4205  0730  2F32               	goto	u2311
  4206  0731  2F33               	goto	u2310
  4207  0732                     u2311:
  4208  0732  2F34               	goto	l2003
  4209  0733                     u2310:
  4210  0733                     l2001:
  4211  0733  1450               	bsf	___fldiv@b,0
  4212  0734                     l2003:
  4213  0734  3001               	movlw	1
  4214  0735  00D4               	movwf	??___fldiv
  4215  0736                     u2325:
  4216  0736  1003               	clrc
  4217  0737  0DE0               	rlf	___fldiv@grs,f
  4218  0738  0DE1               	rlf	___fldiv@grs+1,f
  4219  0739  0DE2               	rlf	___fldiv@grs+2,f
  4220  073A  0DE3               	rlf	___fldiv@grs+3,f
  4221  073B  0BD4               	decfsz	??___fldiv,f
  4222  073C  2F36               	goto	u2325
  4223  073D                     l2005:
  4224  073D  30FF               	movlw	255
  4225  073E  07DE               	addwf	___fldiv@new_exp,f
  4226  073F  1803               	skipnc
  4227  0740  0ADF               	incf	___fldiv@new_exp+1,f
  4228  0741  30FF               	movlw	255
  4229  0742  07DF               	addwf	___fldiv@new_exp+1,f
  4230  0743                     l2007:
  4231  0743  1FD2               	btfss	___fldiv@b+2,7
  4232  0744  2F46               	goto	u2331
  4233  0745  2F47               	goto	u2330
  4234  0746                     u2331:
  4235  0746  2F26               	goto	l1997
  4236  0747                     u2330:
  4237  0747                     l2009:
  4238  0747  01E5               	clrf	___fldiv@aexp
  4239  0748                     l2011:
  4240  0748  1FE3               	btfss	___fldiv@grs+3,7
  4241  0749  2F4B               	goto	u2341
  4242  074A  2F4C               	goto	u2340
  4243  074B                     u2341:
  4244  074B  2F68               	goto	l2019
  4245  074C                     u2340:
  4246  074C                     l2013:
  4247  074C  30FF               	movlw	255
  4248  074D  0560               	andwf	___fldiv@grs,w
  4249  074E  00D4               	movwf	??___fldiv
  4250  074F  30FF               	movlw	255
  4251  0750  0561               	andwf	___fldiv@grs+1,w
  4252  0751  00D5               	movwf	??___fldiv+1
  4253  0752  30FF               	movlw	255
  4254  0753  0562               	andwf	___fldiv@grs+2,w
  4255  0754  00D6               	movwf	??___fldiv+2
  4256  0755  307F               	movlw	127
  4257  0756  0563               	andwf	___fldiv@grs+3,w
  4258  0757  00D7               	movwf	??___fldiv+3
  4259  0758  0857               	movf	??___fldiv+3,w
  4260  0759  0456               	iorwf	??___fldiv+2,w
  4261  075A  0455               	iorwf	??___fldiv+1,w
  4262  075B  0454               	iorwf	??___fldiv,w
  4263  075C  1903               	skipnz
  4264  075D  2F5F               	goto	u2351
  4265  075E  2F60               	goto	u2350
  4266  075F                     u2351:
  4267  075F  2F63               	goto	l624
  4268  0760                     u2350:
  4269  0760                     l2015:
  4270  0760  01E5               	clrf	___fldiv@aexp
  4271  0761  0AE5               	incf	___fldiv@aexp,f
  4272  0762  2F68               	goto	l2019
  4273  0763                     l624:
  4274  0763  1C50               	btfss	___fldiv@b,0
  4275  0764  2F66               	goto	u2361
  4276  0765  2F67               	goto	u2360
  4277  0766                     u2361:
  4278  0766  2F68               	goto	l2019
  4279  0767                     u2360:
  4280  0767  2F60               	goto	l2015
  4281  0768                     l2019:
  4282  0768  0865               	movf	___fldiv@aexp,w
  4283  0769  1903               	btfsc	3,2
  4284  076A  2F6C               	goto	u2371
  4285  076B  2F6D               	goto	u2370
  4286  076C                     u2371:
  4287  076C  2F9E               	goto	l2029
  4288  076D                     u2370:
  4289  076D                     l2021:
  4290  076D  3001               	movlw	1
  4291  076E  07D0               	addwf	___fldiv@b,f
  4292  076F  3000               	movlw	0
  4293  0770  1803               	skipnc
  4294  0771  3001               	movlw	1
  4295  0772  07D1               	addwf	___fldiv@b+1,f
  4296  0773  3000               	movlw	0
  4297  0774  1803               	skipnc
  4298  0775  3001               	movlw	1
  4299  0776  07D2               	addwf	___fldiv@b+2,f
  4300  0777  3000               	movlw	0
  4301  0778  1803               	skipnc
  4302  0779  3001               	movlw	1
  4303  077A  07D3               	addwf	___fldiv@b+3,f
  4304  077B                     l2023:
  4305  077B  1C53               	btfss	___fldiv@b+3,0
  4306  077C  2F7E               	goto	u2381
  4307  077D  2F7F               	goto	u2380
  4308  077E                     u2381:
  4309  077E  2F9E               	goto	l2029
  4310  077F                     u2380:
  4311  077F                     l2025:
  4312  077F  0850               	movf	___fldiv@b,w
  4313  0780  00D4               	movwf	??___fldiv
  4314  0781  0851               	movf	___fldiv@b+1,w
  4315  0782  00D5               	movwf	??___fldiv+1
  4316  0783  0852               	movf	___fldiv@b+2,w
  4317  0784  00D6               	movwf	??___fldiv+2
  4318  0785  0853               	movf	___fldiv@b+3,w
  4319  0786  00D7               	movwf	??___fldiv+3
  4320  0787  3001               	movlw	1
  4321  0788  00D8               	movwf	??___fldiv+4
  4322  0789                     u2395:
  4323  0789  0D57               	rlf	??___fldiv+3,w
  4324  078A  0CD7               	rrf	??___fldiv+3,f
  4325  078B  0CD6               	rrf	??___fldiv+2,f
  4326  078C  0CD5               	rrf	??___fldiv+1,f
  4327  078D  0CD4               	rrf	??___fldiv,f
  4328  078E                     u2390:
  4329  078E  0BD8               	decfsz	??___fldiv+4,f
  4330  078F  2F89               	goto	u2395
  4331  0790  0857               	movf	??___fldiv+3,w
  4332  0791  00D3               	movwf	___fldiv@b+3
  4333  0792  0856               	movf	??___fldiv+2,w
  4334  0793  00D2               	movwf	___fldiv@b+2
  4335  0794  0855               	movf	??___fldiv+1,w
  4336  0795  00D1               	movwf	___fldiv@b+1
  4337  0796  0854               	movf	??___fldiv,w
  4338  0797  00D0               	movwf	___fldiv@b
  4339  0798                     l2027:
  4340  0798  3001               	movlw	1
  4341  0799  07DE               	addwf	___fldiv@new_exp,f
  4342  079A  1803               	skipnc
  4343  079B  0ADF               	incf	___fldiv@new_exp+1,f
  4344  079C  3000               	movlw	0
  4345  079D  07DF               	addwf	___fldiv@new_exp+1,f
  4346  079E                     l2029:
  4347  079E  085F               	movf	___fldiv@new_exp+1,w
  4348  079F  3A80               	xorlw	128
  4349  07A0  00FF               	movwf	btemp+1
  4350  07A1  3080               	movlw	128
  4351  07A2  027F               	subwf	btemp+1,w
  4352  07A3  1D03               	skipz
  4353  07A4  2FA7               	goto	u2405
  4354  07A5  30FF               	movlw	255
  4355  07A6  025E               	subwf	___fldiv@new_exp,w
  4356  07A7                     u2405:
  4357  07A7  1C03               	skipc
  4358  07A8  2FAA               	goto	u2401
  4359  07A9  2FAB               	goto	u2400
  4360  07AA                     u2401:
  4361  07AA  2FB9               	goto	l2033
  4362  07AB                     u2400:
  4363  07AB                     l2031:
  4364  07AB  30FF               	movlw	255
  4365  07AC  1283               	bcf	3,5	;RP0=0, select bank0
  4366  07AD  1303               	bcf	3,6	;RP1=0, select bank0
  4367  07AE  00DE               	movwf	___fldiv@new_exp
  4368  07AF  3000               	movlw	0
  4369  07B0  00DF               	movwf	___fldiv@new_exp+1
  4370  07B1  3000               	movlw	0
  4371  07B2  00D3               	movwf	___fldiv@b+3
  4372  07B3  3000               	movlw	0
  4373  07B4  00D2               	movwf	___fldiv@b+2
  4374  07B5  3000               	movlw	0
  4375  07B6  00D1               	movwf	___fldiv@b+1
  4376  07B7  3000               	movlw	0
  4377  07B8  00D0               	movwf	___fldiv@b
  4378  07B9                     l2033:
  4379  07B9  1283               	bcf	3,5	;RP0=0, select bank0
  4380  07BA  1303               	bcf	3,6	;RP1=0, select bank0
  4381  07BB  085F               	movf	___fldiv@new_exp+1,w
  4382  07BC  3A80               	xorlw	128
  4383  07BD  00FF               	movwf	btemp+1
  4384  07BE  3080               	movlw	128
  4385  07BF  027F               	subwf	btemp+1,w
  4386  07C0  1D03               	skipz
  4387  07C1  2FC4               	goto	u2415
  4388  07C2  3001               	movlw	1
  4389  07C3  025E               	subwf	___fldiv@new_exp,w
  4390  07C4                     u2415:
  4391  07C4  1803               	skipnc
  4392  07C5  2FC7               	goto	u2411
  4393  07C6  2FC8               	goto	u2410
  4394  07C7                     u2411:
  4395  07C7  2FD5               	goto	l630
  4396  07C8                     u2410:
  4397  07C8                     l2035:
  4398  07C8  1283               	bcf	3,5	;RP0=0, select bank0
  4399  07C9  1303               	bcf	3,6	;RP1=0, select bank0
  4400  07CA  01DE               	clrf	___fldiv@new_exp
  4401  07CB  01DF               	clrf	___fldiv@new_exp+1
  4402  07CC                     l2037:
  4403  07CC  3000               	movlw	0
  4404  07CD  00D3               	movwf	___fldiv@b+3
  4405  07CE  3000               	movlw	0
  4406  07CF  00D2               	movwf	___fldiv@b+2
  4407  07D0  3000               	movlw	0
  4408  07D1  00D1               	movwf	___fldiv@b+1
  4409  07D2  3000               	movlw	0
  4410  07D3  00D0               	movwf	___fldiv@b
  4411  07D4                     l2039:
  4412  07D4  01DD               	clrf	___fldiv@sign
  4413  07D5                     l630:
  4414  07D5  1283               	bcf	3,5	;RP0=0, select bank0
  4415  07D6  1303               	bcf	3,6	;RP1=0, select bank0
  4416  07D7  085E               	movf	___fldiv@new_exp,w
  4417  07D8  00D4               	movwf	??___fldiv
  4418  07D9  0854               	movf	??___fldiv,w
  4419  07DA  00E4               	movwf	___fldiv@bexp
  4420  07DB                     l2041:
  4421  07DB  1C64               	btfss	___fldiv@bexp,0
  4422  07DC  2FDE               	goto	u2421
  4423  07DD  2FDF               	goto	u2420
  4424  07DE                     u2421:
  4425  07DE  2FE1               	goto	l2045
  4426  07DF                     u2420:
  4427  07DF                     l2043:
  4428  07DF  17D2               	bsf	___fldiv@b+2,7
  4429  07E0  2FE5               	goto	l632
  4430  07E1                     l2045:
  4431  07E1  307F               	movlw	127
  4432  07E2  00D4               	movwf	??___fldiv
  4433  07E3  0854               	movf	??___fldiv,w
  4434  07E4  05D2               	andwf	___fldiv@b+2,f
  4435  07E5                     l632:
  4436  07E5  0864               	movf	___fldiv@bexp,w
  4437  07E6  00D4               	movwf	??___fldiv
  4438  07E7  1003               	clrc
  4439  07E8  0C54               	rrf	??___fldiv,w
  4440  07E9  00D5               	movwf	??___fldiv+1
  4441  07EA  0855               	movf	??___fldiv+1,w
  4442  07EB  00D3               	movwf	___fldiv@b+3
  4443  07EC  085D               	movf	___fldiv@sign,w
  4444  07ED  00D4               	movwf	??___fldiv
  4445  07EE  0854               	movf	??___fldiv,w
  4446  07EF  04D3               	iorwf	___fldiv@b+3,f
  4447  07F0  2E89               	goto	l1953
  4448  07F1                     l610:
  4449  07F1  0008               	return
  4450  07F2                     __end_of___fldiv:
  4451                           
  4452                           	psect	text9
  4453  0C88                     __ptext9:	
  4454 ;; *************** function _Lcd_Write_String *****************
  4455 ;; Defined at:
  4456 ;;		line 77 in file "LCD.c"
  4457 ;; Parameters:    Size  Location     Type
  4458 ;;  a               1    wreg     PTR unsigned char 
  4459 ;;		 -> STR_1(17), 
  4460 ;; Auto vars:     Size  Location     Type
  4461 ;;  a               1    3[BANK0 ] PTR unsigned char 
  4462 ;;		 -> STR_1(17), 
  4463 ;;  i               2    4[BANK0 ] int 
  4464 ;; Return value:  Size  Location     Type
  4465 ;;                  1    wreg      void 
  4466 ;; Registers used:
  4467 ;;		wreg, fsr0l, fsr0h, status,2, status,0, pclath, cstack
  4468 ;; Tracked objects:
  4469 ;;		On entry : 0/0
  4470 ;;		On exit  : 0/0
  4471 ;;		Unchanged: 0/0
  4472 ;; Data sizes:     COMMON   BANK0   BANK1   BANK3   BANK2
  4473 ;;      Params:         0       0       0       0       0
  4474 ;;      Locals:         0       3       0       0       0
  4475 ;;      Temps:          0       0       0       0       0
  4476 ;;      Totals:         0       3       0       0       0
  4477 ;;Total ram usage:        3 bytes
  4478 ;; Hardware stack levels used: 1
  4479 ;; Hardware stack levels required when called: 3
  4480 ;; This function calls:
  4481 ;;		_Lcd_Write_Char
  4482 ;; This function is called by:
  4483 ;;		_main
  4484 ;; This function uses a non-reentrant model
  4485 ;;
  4486                           
  4487                           
  4488                           ;psect for function _Lcd_Write_String
  4489  0C88                     _Lcd_Write_String:
  4490                           
  4491                           ;incstack = 0
  4492                           ; Regs used in _Lcd_Write_String: [wreg-fsr0h+status,2+status,0+pclath+cstack]
  4493                           ;Lcd_Write_String@a stored from wreg
  4494  0C88  1283               	bcf	3,5	;RP0=0, select bank0
  4495  0C89  1303               	bcf	3,6	;RP1=0, select bank0
  4496  0C8A  00A3               	movwf	Lcd_Write_String@a
  4497  0C8B                     l2311:
  4498                           
  4499                           ;LCD.c: 78:     int i;;LCD.c: 79:     for (i = 0; a[i] != '\0'; i++)
  4500  0C8B  01A4               	clrf	Lcd_Write_String@i
  4501  0C8C  01A5               	clrf	Lcd_Write_String@i+1
  4502  0C8D  2CA3               	goto	l2317
  4503  0C8E                     l2313:
  4504                           
  4505                           ;LCD.c: 80:         Lcd_Write_Char(a[i]);
  4506  0C8E  0824               	movf	Lcd_Write_String@i,w
  4507  0C8F  0723               	addwf	Lcd_Write_String@a,w
  4508  0C90  0084               	movwf	4
  4509  0C91  120A  158A  2000  120A  158A  	fcall	stringdir
  4510  0C96  120A  158A  2446  120A  158A  	fcall	_Lcd_Write_Char
  4511  0C9B                     l2315:
  4512  0C9B  3001               	movlw	1
  4513  0C9C  1283               	bcf	3,5	;RP0=0, select bank0
  4514  0C9D  1303               	bcf	3,6	;RP1=0, select bank0
  4515  0C9E  07A4               	addwf	Lcd_Write_String@i,f
  4516  0C9F  1803               	skipnc
  4517  0CA0  0AA5               	incf	Lcd_Write_String@i+1,f
  4518  0CA1  3000               	movlw	0
  4519  0CA2  07A5               	addwf	Lcd_Write_String@i+1,f
  4520  0CA3                     l2317:
  4521  0CA3  0824               	movf	Lcd_Write_String@i,w
  4522  0CA4  0723               	addwf	Lcd_Write_String@a,w
  4523  0CA5  0084               	movwf	4
  4524  0CA6  120A  158A  2000  120A  158A  	fcall	stringdir
  4525  0CAB  3A00               	xorlw	0
  4526  0CAC  1D03               	skipz
  4527  0CAD  2CAF               	goto	u2981
  4528  0CAE  2CB0               	goto	u2980
  4529  0CAF                     u2981:
  4530  0CAF  2C8E               	goto	l2313
  4531  0CB0                     u2980:
  4532  0CB0                     l90:
  4533  0CB0  0008               	return
  4534  0CB1                     __end_of_Lcd_Write_String:
  4535                           
  4536                           	psect	text10
  4537  0C46                     __ptext10:	
  4538 ;; *************** function _Lcd_Write_Char *****************
  4539 ;; Defined at:
  4540 ;;		line 65 in file "LCD.c"
  4541 ;; Parameters:    Size  Location     Type
  4542 ;;  a               1    wreg     unsigned char 
  4543 ;; Auto vars:     Size  Location     Type
  4544 ;;  a               1    0[BANK0 ] unsigned char 
  4545 ;;  y               1    2[BANK0 ] unsigned char 
  4546 ;;  temp            1    1[BANK0 ] unsigned char 
  4547 ;; Return value:  Size  Location     Type
  4548 ;;                  1    wreg      void 
  4549 ;; Registers used:
  4550 ;;		wreg, status,2, status,0, pclath, cstack
  4551 ;; Tracked objects:
  4552 ;;		On entry : 0/0
  4553 ;;		On exit  : 0/0
  4554 ;;		Unchanged: 0/0
  4555 ;; Data sizes:     COMMON   BANK0   BANK1   BANK3   BANK2
  4556 ;;      Params:         0       0       0       0       0
  4557 ;;      Locals:         0       3       0       0       0
  4558 ;;      Temps:          1       0       0       0       0
  4559 ;;      Totals:         1       3       0       0       0
  4560 ;;Total ram usage:        4 bytes
  4561 ;; Hardware stack levels used: 1
  4562 ;; Hardware stack levels required when called: 2
  4563 ;; This function calls:
  4564 ;;		_Lcd_Port
  4565 ;; This function is called by:
  4566 ;;		_Lcd_Write_String
  4567 ;;		_main
  4568 ;; This function uses a non-reentrant model
  4569 ;;
  4570                           
  4571                           
  4572                           ;psect for function _Lcd_Write_Char
  4573  0C46                     _Lcd_Write_Char:
  4574                           
  4575                           ;incstack = 0
  4576                           ; Regs used in _Lcd_Write_Char: [wreg+status,2+status,0+pclath+cstack]
  4577                           ;Lcd_Write_Char@a stored from wreg
  4578  0C46  1283               	bcf	3,5	;RP0=0, select bank0
  4579  0C47  1303               	bcf	3,6	;RP1=0, select bank0
  4580  0C48  00A0               	movwf	Lcd_Write_Char@a
  4581  0C49                     l2267:
  4582                           
  4583                           ;LCD.c: 66:     char temp, y;;LCD.c: 67:     temp = a;
  4584  0C49  0820               	movf	Lcd_Write_Char@a,w
  4585  0C4A  00F5               	movwf	??_Lcd_Write_Char
  4586  0C4B  0875               	movf	??_Lcd_Write_Char,w
  4587  0C4C  00A1               	movwf	Lcd_Write_Char@temp
  4588                           
  4589                           ;LCD.c: 68:     y = temp;
  4590  0C4D  0821               	movf	Lcd_Write_Char@temp,w
  4591  0C4E  00F5               	movwf	??_Lcd_Write_Char
  4592  0C4F  0875               	movf	??_Lcd_Write_Char,w
  4593  0C50  00A2               	movwf	Lcd_Write_Char@y
  4594  0C51                     l2269:
  4595                           
  4596                           ;LCD.c: 69:     RE0 = 1;
  4597  0C51  1409               	bsf	9,0	;volatile
  4598  0C52                     l2271:
  4599                           
  4600                           ;LCD.c: 70:     Lcd_Port(y);
  4601  0C52  0822               	movf	Lcd_Write_Char@y,w
  4602  0C53  120A  158A  241E  120A  158A  	fcall	_Lcd_Port
  4603  0C58                     l2273:
  4604                           
  4605                           ;LCD.c: 71:     RE1 = 1;
  4606  0C58  1283               	bcf	3,5	;RP0=0, select bank0
  4607  0C59  1303               	bcf	3,6	;RP1=0, select bank0
  4608  0C5A  1489               	bsf	9,1	;volatile
  4609  0C5B                     l2275:
  4610                           
  4611                           ;LCD.c: 72:     _delay((unsigned long)((40)*(8000000/4000000.0)));
  4612  0C5B  301A               	movlw	26
  4613  0C5C  00F5               	movwf	??_Lcd_Write_Char
  4614  0C5D                     u3117:
  4615  0C5D  0BF5               	decfsz	??_Lcd_Write_Char,f
  4616  0C5E  2C5D               	goto	u3117
  4617  0C5F  0000               	nop
  4618  0C60                     l2277:
  4619                           
  4620                           ;LCD.c: 73:     RE1 = 0;
  4621  0C60  1283               	bcf	3,5	;RP0=0, select bank0
  4622  0C61  1303               	bcf	3,6	;RP1=0, select bank0
  4623  0C62  1089               	bcf	9,1	;volatile
  4624  0C63                     l84:
  4625  0C63  0008               	return
  4626  0C64                     __end_of_Lcd_Write_Char:
  4627                           
  4628                           	psect	text11
  4629  0D84                     __ptext11:	
  4630 ;; *************** function _Lcd_Set_Cursor *****************
  4631 ;; Defined at:
  4632 ;;		line 30 in file "LCD.c"
  4633 ;; Parameters:    Size  Location     Type
  4634 ;;  a               1    wreg     unsigned char 
  4635 ;;  b               1    0[BANK0 ] unsigned char 
  4636 ;; Auto vars:     Size  Location     Type
  4637 ;;  a               1    3[BANK0 ] unsigned char 
  4638 ;;  temp            1    6[BANK0 ] unsigned char 
  4639 ;;  y               1    5[BANK0 ] unsigned char 
  4640 ;;  z               1    4[BANK0 ] unsigned char 
  4641 ;; Return value:  Size  Location     Type
  4642 ;;                  1    wreg      void 
  4643 ;; Registers used:
  4644 ;;		wreg, status,2, status,0, pclath, cstack
  4645 ;; Tracked objects:
  4646 ;;		On entry : 0/0
  4647 ;;		On exit  : 0/0
  4648 ;;		Unchanged: 0/0
  4649 ;; Data sizes:     COMMON   BANK0   BANK1   BANK3   BANK2
  4650 ;;      Params:         0       1       0       0       0
  4651 ;;      Locals:         0       4       0       0       0
  4652 ;;      Temps:          0       2       0       0       0
  4653 ;;      Totals:         0       7       0       0       0
  4654 ;;Total ram usage:        7 bytes
  4655 ;; Hardware stack levels used: 1
  4656 ;; Hardware stack levels required when called: 3
  4657 ;; This function calls:
  4658 ;;		_Lcd_Cmd
  4659 ;; This function is called by:
  4660 ;;		_main
  4661 ;; This function uses a non-reentrant model
  4662 ;;
  4663                           
  4664                           
  4665                           ;psect for function _Lcd_Set_Cursor
  4666  0D84                     _Lcd_Set_Cursor:
  4667                           
  4668                           ;incstack = 0
  4669                           ; Regs used in _Lcd_Set_Cursor: [wreg+status,2+status,0+pclath+cstack]
  4670                           ;Lcd_Set_Cursor@a stored from wreg
  4671  0D84  1283               	bcf	3,5	;RP0=0, select bank0
  4672  0D85  1303               	bcf	3,6	;RP1=0, select bank0
  4673  0D86  00A3               	movwf	Lcd_Set_Cursor@a
  4674  0D87                     l2281:
  4675                           
  4676                           ;LCD.c: 31:     char temp, z, y;;LCD.c: 32:     if (a == 1) {
  4677  0D87  0323               	decf	Lcd_Set_Cursor@a,w
  4678  0D88  1D03               	btfss	3,2
  4679  0D89  2D8B               	goto	u2941
  4680  0D8A  2D8C               	goto	u2940
  4681  0D8B                     u2941:
  4682  0D8B  2DB1               	goto	l2291
  4683  0D8C                     u2940:
  4684  0D8C                     l2283:
  4685                           
  4686                           ;LCD.c: 33:         temp = 0x80 + b - 1;
  4687  0D8C  0820               	movf	Lcd_Set_Cursor@b,w
  4688  0D8D  3E7F               	addlw	127
  4689  0D8E  00A1               	movwf	??_Lcd_Set_Cursor
  4690  0D8F  0821               	movf	??_Lcd_Set_Cursor,w
  4691  0D90  00A6               	movwf	Lcd_Set_Cursor@temp
  4692                           
  4693                           ;LCD.c: 34:         z = temp >> 4;
  4694  0D91  0826               	movf	Lcd_Set_Cursor@temp,w
  4695  0D92  00A1               	movwf	??_Lcd_Set_Cursor
  4696  0D93  3004               	movlw	4
  4697  0D94                     u2955:
  4698  0D94  1003               	clrc
  4699  0D95  0CA1               	rrf	??_Lcd_Set_Cursor,f
  4700  0D96  3EFF               	addlw	-1
  4701  0D97  1D03               	skipz
  4702  0D98  2D94               	goto	u2955
  4703  0D99  0821               	movf	??_Lcd_Set_Cursor,w
  4704  0D9A  00A2               	movwf	??_Lcd_Set_Cursor+1
  4705  0D9B  0822               	movf	??_Lcd_Set_Cursor+1,w
  4706  0D9C  00A4               	movwf	Lcd_Set_Cursor@z
  4707  0D9D                     l2285:
  4708                           
  4709                           ;LCD.c: 35:         y = temp & 0x0F;
  4710  0D9D  0826               	movf	Lcd_Set_Cursor@temp,w
  4711  0D9E  390F               	andlw	15
  4712  0D9F  00A1               	movwf	??_Lcd_Set_Cursor
  4713  0DA0  0821               	movf	??_Lcd_Set_Cursor,w
  4714  0DA1  00A5               	movwf	Lcd_Set_Cursor@y
  4715  0DA2                     l2287:
  4716                           
  4717                           ;LCD.c: 36:         Lcd_Cmd(z);
  4718  0DA2  0824               	movf	Lcd_Set_Cursor@z,w
  4719  0DA3  120A  158A  242C  120A  158A  	fcall	_Lcd_Cmd
  4720  0DA8                     l2289:
  4721                           
  4722                           ;LCD.c: 37:         Lcd_Cmd(y);
  4723  0DA8  1283               	bcf	3,5	;RP0=0, select bank0
  4724  0DA9  1303               	bcf	3,6	;RP1=0, select bank0
  4725  0DAA  0825               	movf	Lcd_Set_Cursor@y,w
  4726  0DAB  120A  158A  242C  120A  158A  	fcall	_Lcd_Cmd
  4727                           
  4728                           ;LCD.c: 38:     } else if (a == 2) {
  4729  0DB0  2DDB               	goto	l78
  4730  0DB1                     l2291:
  4731  0DB1  3002               	movlw	2
  4732  0DB2  0623               	xorwf	Lcd_Set_Cursor@a,w
  4733  0DB3  1D03               	btfss	3,2
  4734  0DB4  2DB6               	goto	u2961
  4735  0DB5  2DB7               	goto	u2960
  4736  0DB6                     u2961:
  4737  0DB6  2DDB               	goto	l78
  4738  0DB7                     u2960:
  4739  0DB7                     l2293:
  4740                           
  4741                           ;LCD.c: 39:         temp = 0xC0 + b - 1;
  4742  0DB7  0820               	movf	Lcd_Set_Cursor@b,w
  4743  0DB8  3EBF               	addlw	191
  4744  0DB9  00A1               	movwf	??_Lcd_Set_Cursor
  4745  0DBA  0821               	movf	??_Lcd_Set_Cursor,w
  4746  0DBB  00A6               	movwf	Lcd_Set_Cursor@temp
  4747                           
  4748                           ;LCD.c: 40:         z = temp >> 4;
  4749  0DBC  0826               	movf	Lcd_Set_Cursor@temp,w
  4750  0DBD  00A1               	movwf	??_Lcd_Set_Cursor
  4751  0DBE  3004               	movlw	4
  4752  0DBF                     u2975:
  4753  0DBF  1003               	clrc
  4754  0DC0  0CA1               	rrf	??_Lcd_Set_Cursor,f
  4755  0DC1  3EFF               	addlw	-1
  4756  0DC2  1D03               	skipz
  4757  0DC3  2DBF               	goto	u2975
  4758  0DC4  0821               	movf	??_Lcd_Set_Cursor,w
  4759  0DC5  00A2               	movwf	??_Lcd_Set_Cursor+1
  4760  0DC6  0822               	movf	??_Lcd_Set_Cursor+1,w
  4761  0DC7  00A4               	movwf	Lcd_Set_Cursor@z
  4762  0DC8                     l2295:
  4763                           
  4764                           ;LCD.c: 41:         y = temp & 0xF0;
  4765  0DC8  0826               	movf	Lcd_Set_Cursor@temp,w
  4766  0DC9  39F0               	andlw	240
  4767  0DCA  00A1               	movwf	??_Lcd_Set_Cursor
  4768  0DCB  0821               	movf	??_Lcd_Set_Cursor,w
  4769  0DCC  00A5               	movwf	Lcd_Set_Cursor@y
  4770  0DCD                     l2297:
  4771                           
  4772                           ;LCD.c: 42:         Lcd_Cmd(z);
  4773  0DCD  0824               	movf	Lcd_Set_Cursor@z,w
  4774  0DCE  120A  158A  242C  120A  158A  	fcall	_Lcd_Cmd
  4775  0DD3                     l2299:
  4776                           
  4777                           ;LCD.c: 43:         Lcd_Cmd(y);
  4778  0DD3  1283               	bcf	3,5	;RP0=0, select bank0
  4779  0DD4  1303               	bcf	3,6	;RP1=0, select bank0
  4780  0DD5  0825               	movf	Lcd_Set_Cursor@y,w
  4781  0DD6  120A  158A  242C  120A  158A  	fcall	_Lcd_Cmd
  4782  0DDB                     l78:
  4783  0DDB  0008               	return
  4784  0DDC                     __end_of_Lcd_Set_Cursor:
  4785                           
  4786                           	psect	text12
  4787  0D38                     __ptext12:	
  4788 ;; *************** function _Lcd_Init *****************
  4789 ;; Defined at:
  4790 ;;		line 47 in file "LCD.c"
  4791 ;; Parameters:    Size  Location     Type
  4792 ;;		None
  4793 ;; Auto vars:     Size  Location     Type
  4794 ;;		None
  4795 ;; Return value:  Size  Location     Type
  4796 ;;                  1    wreg      void 
  4797 ;; Registers used:
  4798 ;;		wreg, status,2, status,0, pclath, cstack
  4799 ;; Tracked objects:
  4800 ;;		On entry : 0/0
  4801 ;;		On exit  : 0/0
  4802 ;;		Unchanged: 0/0
  4803 ;; Data sizes:     COMMON   BANK0   BANK1   BANK3   BANK2
  4804 ;;      Params:         0       0       0       0       0
  4805 ;;      Locals:         0       0       0       0       0
  4806 ;;      Temps:          0       2       0       0       0
  4807 ;;      Totals:         0       2       0       0       0
  4808 ;;Total ram usage:        2 bytes
  4809 ;; Hardware stack levels used: 1
  4810 ;; Hardware stack levels required when called: 3
  4811 ;; This function calls:
  4812 ;;		_Lcd_Cmd
  4813 ;;		_Lcd_Port
  4814 ;; This function is called by:
  4815 ;;		_main
  4816 ;; This function uses a non-reentrant model
  4817 ;;
  4818                           
  4819                           
  4820                           ;psect for function _Lcd_Init
  4821  0D38                     _Lcd_Init:
  4822  0D38                     l2301:	
  4823                           ;incstack = 0
  4824                           ; Regs used in _Lcd_Init: [wreg+status,2+status,0+pclath+cstack]
  4825                           
  4826                           
  4827                           ;LCD.c: 48:     Lcd_Port(0x00);
  4828  0D38  3000               	movlw	0
  4829  0D39  120A  158A  241E  120A  158A  	fcall	_Lcd_Port
  4830  0D3E                     l2303:
  4831                           
  4832                           ;LCD.c: 49:     _delay((unsigned long)((20)*(8000000/4000.0)));
  4833  0D3E  3034               	movlw	52
  4834  0D3F  1283               	bcf	3,5	;RP0=0, select bank0
  4835  0D40  1303               	bcf	3,6	;RP1=0, select bank0
  4836  0D41  00A1               	movwf	??_Lcd_Init+1
  4837  0D42  30F1               	movlw	241
  4838  0D43  00A0               	movwf	??_Lcd_Init
  4839  0D44                     u3127:
  4840  0D44  0BA0               	decfsz	??_Lcd_Init,f
  4841  0D45  2D44               	goto	u3127
  4842  0D46  0BA1               	decfsz	??_Lcd_Init+1,f
  4843  0D47  2D44               	goto	u3127
  4844  0D48                     l2305:
  4845                           
  4846                           ;LCD.c: 50:     Lcd_Cmd(0x30);
  4847  0D48  3030               	movlw	48
  4848  0D49  120A  158A  242C  120A  158A  	fcall	_Lcd_Cmd
  4849                           
  4850                           ;LCD.c: 51:     _delay((unsigned long)((5)*(8000000/4000.0)));
  4851  0D4E  300D               	movlw	13
  4852  0D4F  1283               	bcf	3,5	;RP0=0, select bank0
  4853  0D50  1303               	bcf	3,6	;RP1=0, select bank0
  4854  0D51  00A1               	movwf	??_Lcd_Init+1
  4855  0D52  30FB               	movlw	251
  4856  0D53  00A0               	movwf	??_Lcd_Init
  4857  0D54                     u3137:
  4858  0D54  0BA0               	decfsz	??_Lcd_Init,f
  4859  0D55  2D54               	goto	u3137
  4860  0D56  0BA1               	decfsz	??_Lcd_Init+1,f
  4861  0D57  2D54               	goto	u3137
  4862  0D58                     l2307:
  4863                           
  4864                           ;LCD.c: 52:     Lcd_Cmd(0x30);
  4865  0D58  3030               	movlw	48
  4866  0D59  120A  158A  242C  120A  158A  	fcall	_Lcd_Cmd
  4867  0D5E                     l2309:
  4868                           
  4869                           ;LCD.c: 53:     _delay((unsigned long)((200)*(8000000/4000000.0)));
  4870  0D5E  3084               	movlw	132
  4871  0D5F  1283               	bcf	3,5	;RP0=0, select bank0
  4872  0D60  1303               	bcf	3,6	;RP1=0, select bank0
  4873  0D61  00A0               	movwf	??_Lcd_Init
  4874  0D62                     u3147:
  4875  0D62  0BA0               	decfsz	??_Lcd_Init,f
  4876  0D63  2D62               	goto	u3147
  4877  0D64  0000               	nop
  4878                           
  4879                           ;LCD.c: 54:     Lcd_Cmd(0x30);
  4880  0D65  3030               	movlw	48
  4881  0D66  120A  158A  242C  120A  158A  	fcall	_Lcd_Cmd
  4882                           
  4883                           ;LCD.c: 56:     Lcd_Cmd(0x3C);
  4884  0D6B  303C               	movlw	60
  4885  0D6C  120A  158A  242C  120A  158A  	fcall	_Lcd_Cmd
  4886                           
  4887                           ;LCD.c: 58:     Lcd_Cmd(0x08);
  4888  0D71  3008               	movlw	8
  4889  0D72  120A  158A  242C  120A  158A  	fcall	_Lcd_Cmd
  4890                           
  4891                           ;LCD.c: 60:     Lcd_Cmd(0x01);
  4892  0D77  3001               	movlw	1
  4893  0D78  120A  158A  242C  120A  158A  	fcall	_Lcd_Cmd
  4894                           
  4895                           ;LCD.c: 62:     Lcd_Cmd(0x06);
  4896  0D7D  3006               	movlw	6
  4897  0D7E  120A  158A  242C  120A  158A  	fcall	_Lcd_Cmd
  4898  0D83                     l81:
  4899  0D83  0008               	return
  4900  0D84                     __end_of_Lcd_Init:
  4901                           
  4902                           	psect	text13
  4903  07F2                     __ptext13:	
  4904 ;; *************** function _Lcd_Clear *****************
  4905 ;; Defined at:
  4906 ;;		line 25 in file "LCD.c"
  4907 ;; Parameters:    Size  Location     Type
  4908 ;;		None
  4909 ;; Auto vars:     Size  Location     Type
  4910 ;;		None
  4911 ;; Return value:  Size  Location     Type
  4912 ;;                  1    wreg      void 
  4913 ;; Registers used:
  4914 ;;		wreg, status,2, status,0, pclath, cstack
  4915 ;; Tracked objects:
  4916 ;;		On entry : 0/0
  4917 ;;		On exit  : 0/0
  4918 ;;		Unchanged: 0/0
  4919 ;; Data sizes:     COMMON   BANK0   BANK1   BANK3   BANK2
  4920 ;;      Params:         0       0       0       0       0
  4921 ;;      Locals:         0       0       0       0       0
  4922 ;;      Temps:          0       0       0       0       0
  4923 ;;      Totals:         0       0       0       0       0
  4924 ;;Total ram usage:        0 bytes
  4925 ;; Hardware stack levels used: 1
  4926 ;; Hardware stack levels required when called: 3
  4927 ;; This function calls:
  4928 ;;		_Lcd_Cmd
  4929 ;; This function is called by:
  4930 ;;		_main
  4931 ;; This function uses a non-reentrant model
  4932 ;;
  4933                           
  4934                           
  4935                           ;psect for function _Lcd_Clear
  4936  07F2                     _Lcd_Clear:
  4937  07F2                     l2279:	
  4938                           ;incstack = 0
  4939                           ; Regs used in _Lcd_Clear: [wreg+status,2+status,0+pclath+cstack]
  4940                           
  4941                           
  4942                           ;LCD.c: 26:     Lcd_Cmd(0);
  4943  07F2  3000               	movlw	0
  4944  07F3  120A  158A  242C  120A  118A  	fcall	_Lcd_Cmd
  4945                           
  4946                           ;LCD.c: 27:     Lcd_Cmd(1);
  4947  07F8  3001               	movlw	1
  4948  07F9  120A  158A  242C  120A  118A  	fcall	_Lcd_Cmd
  4949  07FE                     l72:
  4950  07FE  0008               	return
  4951  07FF                     __end_of_Lcd_Clear:
  4952                           
  4953                           	psect	text14
  4954  0C2C                     __ptext14:	
  4955 ;; *************** function _Lcd_Cmd *****************
  4956 ;; Defined at:
  4957 ;;		line 17 in file "LCD.c"
  4958 ;; Parameters:    Size  Location     Type
  4959 ;;  a               1    wreg     unsigned char 
  4960 ;; Auto vars:     Size  Location     Type
  4961 ;;  a               1    7[COMMON] unsigned char 
  4962 ;; Return value:  Size  Location     Type
  4963 ;;                  1    wreg      void 
  4964 ;; Registers used:
  4965 ;;		wreg, status,2, status,0, pclath, cstack
  4966 ;; Tracked objects:
  4967 ;;		On entry : 0/0
  4968 ;;		On exit  : 0/0
  4969 ;;		Unchanged: 0/0
  4970 ;; Data sizes:     COMMON   BANK0   BANK1   BANK3   BANK2
  4971 ;;      Params:         0       0       0       0       0
  4972 ;;      Locals:         1       0       0       0       0
  4973 ;;      Temps:          2       0       0       0       0
  4974 ;;      Totals:         3       0       0       0       0
  4975 ;;Total ram usage:        3 bytes
  4976 ;; Hardware stack levels used: 1
  4977 ;; Hardware stack levels required when called: 2
  4978 ;; This function calls:
  4979 ;;		_Lcd_Port
  4980 ;; This function is called by:
  4981 ;;		_Lcd_Clear
  4982 ;;		_Lcd_Set_Cursor
  4983 ;;		_Lcd_Init
  4984 ;;		_Lcd_Shift_Right
  4985 ;;		_Lcd_Shift_Left
  4986 ;; This function uses a non-reentrant model
  4987 ;;
  4988                           
  4989                           
  4990                           ;psect for function _Lcd_Cmd
  4991  0C2C                     _Lcd_Cmd:
  4992                           
  4993                           ;incstack = 0
  4994                           ; Regs used in _Lcd_Cmd: [wreg+status,2+status,0+pclath+cstack]
  4995                           ;Lcd_Cmd@a stored from wreg
  4996  0C2C  00F7               	movwf	Lcd_Cmd@a
  4997  0C2D                     l2257:
  4998                           
  4999                           ;LCD.c: 18:     RE0 = 0;
  5000  0C2D  1283               	bcf	3,5	;RP0=0, select bank0
  5001  0C2E  1303               	bcf	3,6	;RP1=0, select bank0
  5002  0C2F  1009               	bcf	9,0	;volatile
  5003  0C30                     l2259:
  5004                           
  5005                           ;LCD.c: 19:     Lcd_Port(a);
  5006  0C30  0877               	movf	Lcd_Cmd@a,w
  5007  0C31  120A  158A  241E  120A  158A  	fcall	_Lcd_Port
  5008  0C36                     l2261:
  5009                           
  5010                           ;LCD.c: 20:     RE1 = 1;
  5011  0C36  1283               	bcf	3,5	;RP0=0, select bank0
  5012  0C37  1303               	bcf	3,6	;RP1=0, select bank0
  5013  0C38  1489               	bsf	9,1	;volatile
  5014  0C39                     l2263:
  5015                           
  5016                           ;LCD.c: 21:     _delay((unsigned long)((4)*(8000000/4000.0)));
  5017  0C39  300B               	movlw	11
  5018  0C3A  00F6               	movwf	??_Lcd_Cmd+1
  5019  0C3B  3062               	movlw	98
  5020  0C3C  00F5               	movwf	??_Lcd_Cmd
  5021  0C3D                     u3157:
  5022  0C3D  0BF5               	decfsz	??_Lcd_Cmd,f
  5023  0C3E  2C3D               	goto	u3157
  5024  0C3F  0BF6               	decfsz	??_Lcd_Cmd+1,f
  5025  0C40  2C3D               	goto	u3157
  5026  0C41  0000               	nop
  5027  0C42                     l2265:
  5028                           
  5029                           ;LCD.c: 22:     RE1 = 0;
  5030  0C42  1283               	bcf	3,5	;RP0=0, select bank0
  5031  0C43  1303               	bcf	3,6	;RP1=0, select bank0
  5032  0C44  1089               	bcf	9,1	;volatile
  5033  0C45                     l69:
  5034  0C45  0008               	return
  5035  0C46                     __end_of_Lcd_Cmd:
  5036                           
  5037                           	psect	text15
  5038  0C1E                     __ptext15:	
  5039 ;; *************** function _Lcd_Port *****************
  5040 ;; Defined at:
  5041 ;;		line 12 in file "LCD.c"
  5042 ;; Parameters:    Size  Location     Type
  5043 ;;  a               1    wreg     unsigned char 
  5044 ;; Auto vars:     Size  Location     Type
  5045 ;;  a               1    4[COMMON] unsigned char 
  5046 ;; Return value:  Size  Location     Type
  5047 ;;                  1    wreg      void 
  5048 ;; Registers used:
  5049 ;;		wreg
  5050 ;; Tracked objects:
  5051 ;;		On entry : 0/0
  5052 ;;		On exit  : 0/0
  5053 ;;		Unchanged: 0/0
  5054 ;; Data sizes:     COMMON   BANK0   BANK1   BANK3   BANK2
  5055 ;;      Params:         0       0       0       0       0
  5056 ;;      Locals:         1       0       0       0       0
  5057 ;;      Temps:          0       0       0       0       0
  5058 ;;      Totals:         1       0       0       0       0
  5059 ;;Total ram usage:        1 bytes
  5060 ;; Hardware stack levels used: 1
  5061 ;; Hardware stack levels required when called: 1
  5062 ;; This function calls:
  5063 ;;		Nothing
  5064 ;; This function is called by:
  5065 ;;		_Lcd_Cmd
  5066 ;;		_Lcd_Init
  5067 ;;		_Lcd_Write_Char
  5068 ;; This function uses a non-reentrant model
  5069 ;;
  5070                           
  5071                           
  5072                           ;psect for function _Lcd_Port
  5073  0C1E                     _Lcd_Port:
  5074                           
  5075                           ;incstack = 0
  5076                           ; Regs used in _Lcd_Port: [wreg]
  5077                           ;Lcd_Port@a stored from wreg
  5078  0C1E  00F4               	movwf	Lcd_Port@a
  5079  0C1F                     l2255:
  5080                           
  5081                           ;LCD.c: 13:     PORTD = a;
  5082  0C1F  0874               	movf	Lcd_Port@a,w
  5083  0C20  1283               	bcf	3,5	;RP0=0, select bank0
  5084  0C21  1303               	bcf	3,6	;RP1=0, select bank0
  5085  0C22  0088               	movwf	8	;volatile
  5086  0C23                     l66:
  5087  0C23  0008               	return
  5088  0C24                     __end_of_Lcd_Port:
  5089                           
  5090                           	psect	text16
  5091  0CDA                     __ptext16:	
  5092 ;; *************** function _isr *****************
  5093 ;; Defined at:
  5094 ;;		line 61 in file "Slave_1_main.c"
  5095 ;; Parameters:    Size  Location     Type
  5096 ;;		None
  5097 ;; Auto vars:     Size  Location     Type
  5098 ;;		None
  5099 ;; Return value:  Size  Location     Type
  5100 ;;                  1    wreg      void 
  5101 ;; Registers used:
  5102 ;;		wreg
  5103 ;; Tracked objects:
  5104 ;;		On entry : 0/0
  5105 ;;		On exit  : 0/0
  5106 ;;		Unchanged: 0/0
  5107 ;; Data sizes:     COMMON   BANK0   BANK1   BANK3   BANK2
  5108 ;;      Params:         0       0       0       0       0
  5109 ;;      Locals:         0       0       0       0       0
  5110 ;;      Temps:          4       0       0       0       0
  5111 ;;      Totals:         4       0       0       0       0
  5112 ;;Total ram usage:        4 bytes
  5113 ;; Hardware stack levels used: 1
  5114 ;; This function calls:
  5115 ;;		Nothing
  5116 ;; This function is called by:
  5117 ;;		Interrupt level 1
  5118 ;; This function uses a non-reentrant model
  5119 ;;
  5120                           
  5121                           
  5122                           ;psect for function _isr
  5123  0CDA                     _isr:
  5124  0CDA                     i1l1535:
  5125                           
  5126                           ;Slave_1_main.c: 62:     if (ADIF == 1){
  5127  0CDA  1283               	bcf	3,5	;RP0=0, select bank0
  5128  0CDB  1303               	bcf	3,6	;RP1=0, select bank0
  5129  0CDC  1F0C               	btfss	12,6	;volatile
  5130  0CDD  2CDF               	goto	u149_21
  5131  0CDE  2CE0               	goto	u149_20
  5132  0CDF                     u149_21:
  5133  0CDF  2D01               	goto	i1l170
  5134  0CE0                     u149_20:
  5135  0CE0                     i1l1537:
  5136                           
  5137                           ;Slave_1_main.c: 63:         sun_pot = ADRESH;
  5138  0CE0  081E               	movf	30,w	;volatile
  5139  0CE1  00F0               	movwf	??_isr
  5140  0CE2  01F1               	clrf	??_isr+1
  5141  0CE3  0870               	movf	??_isr,w
  5142  0CE4  00F8               	movwf	_sun_pot
  5143  0CE5  0871               	movf	??_isr+1,w
  5144  0CE6  00F9               	movwf	_sun_pot+1
  5145                           
  5146                           ;Slave_1_main.c: 64:         sun_pot = sun_pot <<8;
  5147  0CE7  0878               	movf	_sun_pot,w
  5148  0CE8  00F1               	movwf	??_isr+1
  5149  0CE9  01F0               	clrf	??_isr
  5150  0CEA  0870               	movf	??_isr,w
  5151  0CEB  00F8               	movwf	_sun_pot
  5152  0CEC  0871               	movf	??_isr+1,w
  5153  0CED  00F9               	movwf	_sun_pot+1
  5154                           
  5155                           ;Slave_1_main.c: 65:         sun_pot |= ADRESL;
  5156  0CEE  1683               	bsf	3,5	;RP0=1, select bank1
  5157  0CEF  1303               	bcf	3,6	;RP1=0, select bank1
  5158  0CF0  081E               	movf	30,w	;volatile
  5159  0CF1  00F0               	movwf	??_isr
  5160  0CF2  01F1               	clrf	??_isr+1
  5161  0CF3  0870               	movf	??_isr,w
  5162  0CF4  04F8               	iorwf	_sun_pot,f
  5163  0CF5  0871               	movf	??_isr+1,w
  5164  0CF6  04F9               	iorwf	_sun_pot+1,f
  5165  0CF7                     i1l1539:
  5166                           
  5167                           ;Slave_1_main.c: 66:         ADIF = 0;
  5168  0CF7  1283               	bcf	3,5	;RP0=0, select bank0
  5169  0CF8  1303               	bcf	3,6	;RP1=0, select bank0
  5170  0CF9  130C               	bcf	12,6	;volatile
  5171                           
  5172                           ;Slave_1_main.c: 67:         _delay((unsigned long)((50)*(8000000/4000000.0)));
  5173  0CFA  3021               	movlw	33
  5174  0CFB  00F0               	movwf	??_isr
  5175  0CFC                     u316_27:
  5176  0CFC  0BF0               	decfsz	??_isr,f
  5177  0CFD  2CFC               	goto	u316_27
  5178  0CFE                     i1l1541:
  5179                           
  5180                           ;Slave_1_main.c: 68:         ADCON0bits.GO = 1;
  5181  0CFE  1283               	bcf	3,5	;RP0=0, select bank0
  5182  0CFF  1303               	bcf	3,6	;RP1=0, select bank0
  5183  0D00  149F               	bsf	31,1	;volatile
  5184  0D01                     i1l170:
  5185  0D01  0873               	movf	??_isr+3,w
  5186  0D02  008A               	movwf	10
  5187  0D03  0E72               	swapf	??_isr+2,w
  5188  0D04  0083               	movwf	3
  5189  0D05  0EFE               	swapf	btemp,f
  5190  0D06  0E7E               	swapf	btemp,w
  5191  0D07  0009               	retfie
  5192  0D08                     __end_of_isr:
  5193  007E                     btemp	set	126	;btemp
  5194  007E                     wtemp0	set	126
  5195                           
  5196                           	psect	intentry
  5197  0004                     __pintentry:	
  5198                           ;incstack = 0
  5199                           ; Regs used in _isr: [wreg]
  5200                           
  5201  0004                     interrupt_function:
  5202  007E                     saved_w	set	btemp
  5203  0004  00FE               	movwf	btemp
  5204  0005  0E03               	swapf	3,w
  5205  0006  00F2               	movwf	??_isr+2
  5206  0007  080A               	movf	10,w
  5207  0008  00F3               	movwf	??_isr+3
  5208  0009  120A  158A  2CDA   	ljmp	_isr
  5209                           
  5210                           	psect	config
  5211                           
  5212                           ;Config register CONFIG1 @ 0x2007
  5213                           ;	Oscillator Selection bits
  5214                           ;	FOSC = INTRC_NOCLKOUT, INTOSCIO oscillator: I/O function on RA6/OSC2/CLKOUT pin, I/O f
      +                          unction on RA7/OSC1/CLKIN
  5215                           ;	Watchdog Timer Enable bit
  5216                           ;	WDTE = OFF, WDT disabled and can be enabled by SWDTEN bit of the WDTCON register
  5217                           ;	Power-up Timer Enable bit
  5218                           ;	PWRTE = OFF, PWRT disabled
  5219                           ;	RE3/MCLR pin function select bit
  5220                           ;	MCLRE = OFF, RE3/MCLR pin function is digital input, MCLR internally tied to VDD
  5221                           ;	Code Protection bit
  5222                           ;	CP = OFF, Program memory code protection is disabled
  5223                           ;	Data Code Protection bit
  5224                           ;	CPD = OFF, Data memory code protection is disabled
  5225                           ;	Brown Out Reset Selection bits
  5226                           ;	BOREN = OFF, BOR disabled
  5227                           ;	Internal External Switchover bit
  5228                           ;	IESO = OFF, Internal/External Switchover mode is disabled
  5229                           ;	Fail-Safe Clock Monitor Enabled bit
  5230                           ;	FCMEN = OFF, Fail-Safe Clock Monitor is disabled
  5231                           ;	Low Voltage Programming Enable bit
  5232                           ;	LVP = OFF, RB3 pin has digital I/O, HV on MCLR must be used for programming
  5233                           ;	In-Circuit Debugger Mode bit
  5234                           ;	DEBUG = 0x1, unprogrammed default
  5235  2007                     	org	8199
  5236  2007  20D4               	dw	8404
  5237                           
  5238                           ;Config register CONFIG2 @ 0x2008
  5239                           ;	Brown-out Reset Selection bit
  5240                           ;	BOR4V = BOR40V, Brown-out Reset set to 4.0V
  5241                           ;	Flash Program Memory Self Write Enable bits
  5242                           ;	WRT = OFF, Write protection off
  5243  2008                     	org	8200
  5244  2008  3FFF               	dw	16383

Data Sizes:
    Strings     17
    Constant    0
    Data        0
    BSS         26
    Persistent  0
    Stack       0

Auto Spaces:
    Space          Size  Autos    Used
    COMMON           14      8      10
    BANK0            80     73      77
    BANK1            80      0      20
    BANK3            96      0       0
    BANK2            96      0       0

Pointer List with Targets:

    Lcd_Write_String@a	PTR unsigned char  size(1) Largest target is 17
		 -> STR_1(CODE[17]), 


Critical Paths under _main in COMMON

    _main->___fltol
    _main->___xxtofl
    ___flsub->___fladd
    ___flsub->___xxtofl
    ___flmul->__Umul8_16
    ___flmul->___xxtofl
    ___fldiv->___xxtofl
    _Lcd_Write_String->_Lcd_Write_Char
    _Lcd_Write_Char->_Lcd_Port
    _Lcd_Set_Cursor->_Lcd_Cmd
    _Lcd_Init->_Lcd_Cmd
    _Lcd_Clear->_Lcd_Cmd
    _Lcd_Cmd->_Lcd_Port

Critical Paths under _isr in COMMON

    None.

Critical Paths under _main in BANK0

    _main->___fldiv
    ___flsub->___flmul
    ___flmul->___xxtofl
    ___fldiv->___flsub
    _Lcd_Write_String->_Lcd_Write_Char

Critical Paths under _isr in BANK0

    None.

Critical Paths under _main in BANK1

    None.

Critical Paths under _isr in BANK1

    None.

Critical Paths under _main in BANK3

    None.

Critical Paths under _isr in BANK3

    None.

Critical Paths under _main in BANK2

    None.

Critical Paths under _isr in BANK2

    None.

Call Graph Tables:

 ---------------------------------------------------------------------------------
 (Depth) Function   	        Calls       Base Space   Used Autos Params    Refs
 ---------------------------------------------------------------------------------
 (0) _main                                                 3     3      0    8379
                                             70 BANK0      3     3      0
                          _Lcd_Clear
                           _Lcd_Init
                     _Lcd_Set_Cursor
                     _Lcd_Write_Char
                   _Lcd_Write_String
                            ___fldiv
                            ___flmul
                            ___flsub
                            ___fltol
                           ___xxtofl
                          _initSETUP
 ---------------------------------------------------------------------------------
 (1) _initSETUP                                            1     1      0       0
                                              4 COMMON     1     1      0
 ---------------------------------------------------------------------------------
 (1) ___xxtofl                                            14    10      4     474
                                              4 COMMON     4     0      4
                                              0 BANK0     10    10      0
 ---------------------------------------------------------------------------------
 (1) ___fltol                                             11     7      4     517
                                              4 COMMON     4     0      4
                                              0 BANK0      7     7      0
 ---------------------------------------------------------------------------------
 (1) ___flsub                                              8     0      8    2333
                                             36 BANK0      8     0      8
                            ___fladd
                            ___flmul (ARG)
                           ___xxtofl (ARG)
 ---------------------------------------------------------------------------------
 (2) ___fladd                                             20    12      8    2136
                                              4 COMMON     4     4      0
                                              0 BANK0     16     8      8
 ---------------------------------------------------------------------------------
 (1) ___flmul                                             26    18      8    2569
                                             10 BANK0     26    18      8
                          __Umul8_16
                           ___xxtofl (ARG)
 ---------------------------------------------------------------------------------
 (2) __Umul8_16                                            9     7      2     799
                                              4 COMMON     4     2      2
                                              0 BANK0      5     5      0
 ---------------------------------------------------------------------------------
 (1) ___fldiv                                             26    18      8    1273
                                             44 BANK0     26    18      8
                            ___flmul (ARG)
                            ___flsub (ARG)
                           ___xxtofl (ARG)
 ---------------------------------------------------------------------------------
 (1) _Lcd_Write_String                                     3     3      0     296
                                              3 BANK0      3     3      0
                     _Lcd_Write_Char
 ---------------------------------------------------------------------------------
 (2) _Lcd_Write_Char                                       4     4      0     130
                                              5 COMMON     1     1      0
                                              0 BANK0      3     3      0
                           _Lcd_Port
 ---------------------------------------------------------------------------------
 (1) _Lcd_Set_Cursor                                       7     6      1     632
                                              0 BANK0      7     6      1
                            _Lcd_Cmd
 ---------------------------------------------------------------------------------
 (1) _Lcd_Init                                             2     2      0      93
                                              0 BANK0      2     2      0
                            _Lcd_Cmd
                           _Lcd_Port
 ---------------------------------------------------------------------------------
 (1) _Lcd_Clear                                            0     0      0      62
                            _Lcd_Cmd
 ---------------------------------------------------------------------------------
 (2) _Lcd_Cmd                                              3     3      0      62
                                              5 COMMON     3     3      0
                           _Lcd_Port
 ---------------------------------------------------------------------------------
 (3) _Lcd_Port                                             1     1      0      31
                                              4 COMMON     1     1      0
 ---------------------------------------------------------------------------------
 Estimated maximum stack depth 3
 ---------------------------------------------------------------------------------
 (Depth) Function   	        Calls       Base Space   Used Autos Params    Refs
 ---------------------------------------------------------------------------------
 (4) _isr                                                  4     4      0       0
                                              0 COMMON     4     4      0
 ---------------------------------------------------------------------------------
 Estimated maximum stack depth 4
 ---------------------------------------------------------------------------------

 Call Graph Graphs:

 _main (ROOT)
   _Lcd_Clear
     _Lcd_Cmd
       _Lcd_Port
   _Lcd_Init
     _Lcd_Cmd
     _Lcd_Port
   _Lcd_Set_Cursor
     _Lcd_Cmd
   _Lcd_Write_Char
     _Lcd_Port
   _Lcd_Write_String
     _Lcd_Write_Char
   ___fldiv
     ___flmul (ARG)
       __Umul8_16
       ___xxtofl (ARG)
     ___flsub (ARG)
       ___fladd
       ___flmul (ARG)
       ___xxtofl (ARG)
     ___xxtofl (ARG)
   ___flmul
   ___flsub
   ___fltol
   ___xxtofl
   _initSETUP

 _isr (ROOT)

 Address spaces:
Name               Size   Autos  Total    Cost      Usage
BITCOMMON            E      0       0       0        0.0%
EEDATA             100      0       0       0        0.0%
NULL                 0      0       0       0        0.0%
CODE                 0      0       0       0        0.0%
COMMON               E      8       A       1       71.4%
BITSFR0              0      0       0       1        0.0%
SFR0                 0      0       0       1        0.0%
BITSFR1              0      0       0       2        0.0%
SFR1                 0      0       0       2        0.0%
STACK                0      0       0       2        0.0%
ABS                  0      0      6B       3        0.0%
BITBANK0            50      0       0       4        0.0%
BITSFR3              0      0       0       4        0.0%
SFR3                 0      0       0       4        0.0%
BANK0               50     49      4D       5       96.2%
BITSFR2              0      0       0       5        0.0%
SFR2                 0      0       0       5        0.0%
BITBANK1            50      0       0       6        0.0%
BANK1               50      0      14       7       25.0%
BITBANK3            60      0       0       8        0.0%
BANK3               60      0       0       9        0.0%
BITBANK2            60      0       0      10        0.0%
BANK2               60      0       0      11        0.0%
DATA                 0      0      6B      12        0.0%


Microchip Technology PIC Macro Assembler V2.32 build 20210201212658 
Symbol Table                                                                                   Tue Sep 07 16:24:25 2021

             ___fldiv@aexp 0065               ___fldiv@bexp 0064                          pc 0002  
             ___fldiv@sign 005D                         l72 07FE                         l81 0D83  
                       l66 0C23                         l90 0CB0                         l84 0C63  
                       l69 0C45                         l78 0DDB                         fsr 0004  
      __Umul8_16@word_mpld 0022                        l173 0D37                        l610 07F1  
                      l452 0E42                        l445 0E57                        l630 07D5  
                      l455 0E57                        l632 07E5                        l624 0763  
                      l608 0671                        l552 03E8                        l705 0EDD  
                      l706 0EE9                        l660 0378                        l556 0491  
                      l573 0562                        l565 0614                        l654 02F0  
                      l558 0466                        l583 05A8                        l648 0384  
                      l577 0586                        l594 0608                        l586 05E6  
                      l667 0CC7                        l595 0614                        l692 0E7C  
                      l669 0CD9                        l598 0C87                        l694 0F13  
                      l698 0EC1                        _GIE 005F                        _RE0 0048  
                      _RE1 0049                        _LDR 00B0                        _isr 0CDA  
                      fsr0 0004                        indf 0000               ___flmul@aexp 003C  
             ___flmul@bexp 003D               ___flmul@sign 0037               ___flmul@temp 0042  
             ___flmul@prod 003E               ___fltol@exp1 0026                       l2001 0733  
                     l2011 0748                       l2003 0734                       l2021 076D  
                     l2013 074C                       l2005 073D                       l2101 00CB  
                     l2031 07AB                       l2023 077B                       l2015 0760  
                     l2007 0743                       l2111 0154                       l2103 00E7  
                     l2041 07DB                       l2033 07B9                       l2025 077F  
                     l2009 0747                       l2121 01C7                       l2113 0164  
                     l2105 0113                       l2043 07DF                       l2035 07C8  
                     l2027 0798                       l2019 0768                       l2131 0274  
                     l2123 01E4                       l2115 0181                       l2107 012F  
                     l2051 0024                       l2211 0EAA                       l2203 0E8D  
                     l2301 0D38                       l2045 07E1                       l2037 07CC  
                     l2029 079E                       l2141 02C0                       l2133 029C  
                     l2125 0211                       l2117 0191                       l2109 014B  
                     l2061 003B                       l2053 002B                       l2221 0EE1  
                     l2213 0EB8                       l2205 0E92                       l2303 0D3E  
                     l2311 0C8B                       l2039 07D4                       l2151 02D5  
                     l2143 02C1                       l2135 02A5                       l2127 0221  
                     l2119 01AE                       l2071 0057                       l2063 0040  
                     l2055 0031                       l2231 0F0B                       l2223 0EEB  
                     l2215 0EC8                       l2207 0E9F                       l2305 0D48  
                     l2313 0C8E                       l2161 02FA                       l2153 02D9  
                     l2145 02CA                       l2137 02B3                       l2129 024E  
                     l2081 006C                       l2073 005D                       l2065 0048  
                     l2057 0035                       l1601 03D0                       l2321 0DE9  
                     l2225 0F01                       l2217 0ED3                       l2209 0EA6  
                     l2307 0D58                       l2315 0C9B                       l2171 0338  
                     l2163 0308                       l2155 02ED                       l2139 02BC  
                     l2147 02D0                       l2091 0088                       l2083 0074  
                     l2075 0061                       l2067 004A                       l2059 0036  
                     l1611 03EE                       l1603 03D5                       l2331 0E10  
                     l2227 0F06                       l2219 0ED7                       l2261 0C36  
                     l2309 0D5E                       l2317 0CA3                       l2181 036C  
                     l2173 0343                       l2165 030C                       l2149 02D4  
                     l2085 0076                       l2077 0062                       l2069 0052  
                     l1701 056A                       l1621 0402                       l1613 03F2  
                     l1605 03DD                       l2341 0E1E                       l2333 0E12  
                     l2325 0DF2                       l2229 0F0A                       l2255 0C1F  
                     l2263 0C39                       l2271 0C52                       l2183 0370  
                     l2175 0352                       l2167 0325                       l2159 02F5  
                     l2095 0091                       l2087 007E                       l2079 0067  
                     l1711 0585                       l1703 056F                       l1631 0416  
                     l1623 0406                       l1615 03F6                       l1607 03DE  
                     l2351 0E47                       l2335 0E16                       l2343 0E30  
                     l2327 0E07                       l2319 0DDC                       l2191 0E5B  
                     l2265 0C42                       l2257 0C2D                       l2281 0D87  
                     l2273 0C58                       l2185 0371                       l2177 035C  
                     l2169 032B                       l2097 00A1                       l2089 0083  
                     l1713 058A                       l1721 0596                       l1641 042A  
                     l1633 041A                       l1625 040A                       l1617 03FA  
                     l1609 03E0                       l2353 0E4C                       l2329 0E08  
                     l2193 0E60                       l2361 0F2D                       l2259 0C30  
                     l2283 0D8C                       l2291 0DB1                       l2275 0C5B  
                     l2267 0C49                       l2187 037C                       l2179 035E  
                     l2099 00AE                       l1715 058D                       l1707 0578  
                     l1723 059A                       l1651 046A                       l1643 042E  
                     l1635 041E                       l1627 040E                       l1619 03FE  
                     l1571 0392                       l2195 0E64                       l2371 0FD9  
                     l2363 0F33                       l2293 0DB7                       l2285 0D9D  
                     l2277 0C60                       l2269 0C51                       l1741 05E2  
                     l1733 05AD                       l1725 059B                       l1717 058F  
                     l1709 0581                       l1661 0487                       l1653 0475  
                     l1637 0422                       l1629 0412                       l1645 0432  
                     l1581 03A9                       l1573 0396                       l2349 0E37  
                     l2197 0E74                       l1821 0D0E                       l2373 0FEE  
                     l2365 0F36                       l2279 07F2                       l2295 0DC8  
                     l2287 0DA2                       l1911 061C                       l1751 05FE  
                     l1743 05EB                       l1735 05B2                       l1727 059F  
                     l1719 0594                       l1671 04A5                       l1655 0477  
                     l1663 048B                       l1647 0433                       l1639 0426  
                     l1591 03BF                       l1583 03AA                       l1575 0397  
                     l1567 0385                       l1903 0C64                       l2199 0E84  
                     l1831 0D15                       l1823 0D0F                       l1815 0D08  
                     l2367 0FB8                       l2359 0F14                       l2297 0DCD  
                     l2289 0DA8                       l1921 0631                       l1913 0622  
                     l1761 0CB4                       l1753 0602                       l1745 05F0  
                     l1737 05C0                       l1729 05A5                       l1681 04D1  
                     l1673 04BE                       l1665 0495                       l1657 047D  
                     l1649 044A                       l1593 03C0                       l1577 039C  
                     l1585 03AC                       l1569 038C                       l1905 0C68  
                     l1841 0D20                       l1833 0D16                       l1825 0D10  
                     l1817 0D0C                       l2369 0FCF                       l2299 0DD3  
                     l1931 0649                       l1923 0639                       l1915 0626  
                     l1771 0CD5                       l1763 0CB6                       l1755 0604  
                     l1747 05F8                       l1739 05C4                       l1691 04FC  
                     l1683 04D5                       l1675 04C2                       l1667 049A  
                     l1659 047E                       l1595 03C6                       l1587 03B4  
                     l1579 03A1                       l1851 0D25                       l1843 0D21  
                     l1835 0D17                       l1827 0D13                       l1819 0D0D  
                     l1941 065E                       l1933 064F                       l1925 063A  
                     l1917 0627                       l1909 0615                       l1765 0CBD  
                     l1757 060F                       l1749 05FD                       l1693 053A  
                     l1685 04D6                       l1677 04C6                       l1597 03CA  
                     l1589 03B9                       l1861 0D35                       l1853 0D2B  
                     l1845 0D22                       l1837 0D1C                       l1829 0D14  
                     l1951 0685                       l1943 0666                       l1935 0653  
                     l1919 062C                       l1927 063C                       l1767 0CC1  
                     l1759 0613                       l1695 0540                       l1687 04DF  
                     l1679 04CF                       l1599 03CB                       l1863 0D36  
                     l1855 0D2D                       l1847 0D23                       l1839 0D1F  
                     l1953 0689                       l1945 0667                       l1937 0654  
                     l1929 0644                       l1769 0CD0                       l1697 0545  
                     l1689 04E4                       l1857 0D2E                       l1849 0D24  
                     l1971 06CA                       l1963 06A0                       l1939 0659  
                     l1947 0669                       l1699 0554                       l1859 0D32  
                     l1981 06E8                       l1973 06CC                       l1965 06B2  
                     l1949 0679                       l1957 0692                       l1975 06D1  
                     l1983 06F1                       l1991 0716                       l1967 06BA  
                     l1959 0697                       l1993 071C                       l1985 0703  
                     l1977 06E3                       l1969 06C2                       l1995 0724  
                     l1987 0704                       l1979 06E7                       l1997 0726  
                     l1989 0712                       l1999 072F                       _ADIF 0066  
                     ?_isr 0070                       STR_1 0806                       u2200 0679  
                     u3000 0E00                       u2201 0678                       u2210 0697  
                     u3010 0E16                       u2211 0696                       u3011 0E15  
                     u2220 06D1                       u2140 0626                       u1500 0396  
                     u3020 0E1D                       u2221 06D0                       u2141 0625  
                     u1501 0395                       u3021 0E1C                       u3005 0DFB  
                     u2310 0733                       u2150 062C                       u1510 039C  
                     u2311 0732                       u2151 062B                       u1511 039B  
                     u2400 07AB                       u2160 0631                       u1600 0455  
                     u1520 03A1                       u3040 0E2F                       u2401 07AA  
                     u2305 0728                       u2161 0630                       u1601 0453  
                     u1521 03A0                       u3041 0E2E                       u2410 07C8  
                     u2330 0747                       u2250 06E7                       u2170 0653  
                     u1610 0456                       u1530 03BF                       u3050 0E36  
                     u2411 07C7                       u2331 0746                       u2251 06E6  
                     u2235 06D3                       u2171 0652                       u1531 03BE  
                     u3051 0E35                       u3035 0E1F                       u3107 0D30  
                     u2420 07DF                       u2340 074C                       u2180 0659  
                     u2500 0088                       u1700 04C6                       u1620 046A  
                     u1540 03CA                       u3117 0C5D                       u2421 07DE  
                     u2405 07A7                       u2341 074B                       u2325 0736  
                     u2245 06DC                       u2181 0658                       u2501 0087  
                     u1701 04C5                       u1621 0469                       u1541 03C9  
                     u2350 0760                       u2270 0703                       u2190 065E  
                     u2430 0035                       u1710 04D5                       u1630 047D  
                     u1550 03D0                       u3070 0E47                       u3127 0D44  
                     u2415 07C4                       u2351 075F                       u2271 0702  
                     u2191 065D                       u2511 00D9                       u2431 0034  
                     u1711 04D4                       u1631 047C                       u1551 03CF  
                     u3071 0E46                       u2360 0767                       u2280 071C  
                     u2512 00E0                       u2440 003B                       u1800 0585  
                     u1560 03D5                       u3080 0E4C                       u3137 0D54  
                     u2361 0766                       u2281 071B                       u2265 06EA  
                     u2601 0203                       u2521 00F5                       u2513 00E7  
                     u2441 003A                       u1801 0584                       u1561 03D4  
                     u3081 0E4B                       u3065 0E39                       u2370 076D  
                     u2290 0724                       u2602 020A                       u2522 00FC  
                     u2450 0040                       u1810 058A                       u1730 04FC  
                     u1650 0491                       u1570 03EE                       u3147 0D62  
                     u2371 076C                       u2291 0723                       u2275 06FF  
                     u2611 0230                       u2603 0211                       u2531 0121  
                     u2523 0103                       u2451 003F                       u1811 0589  
                     u1731 04FB                       u1651 0490                       u1571 03ED  
                     u2380 077F                       u2700 02D4                       u2620 025A  
                     u2612 0237                       u2532 0128                       u2460 0061  
                     u1900 05E2                       u1820 0594                       u1660 0495  
                     u1580 03F2                       u3157 0C3D                       u2381 077E  
                     u2701 02D3                       u2613 023E                       u2541 013D  
                     u2533 012F                       u2461 0060                       u1901 05E1  
                     u1821 0593                       u1741 0513                       u1733 04F8  
                     u1725 04D8                       u1661 0494                       u1645 0480  
                     u1581 03F1                       u2390 078E                       u2710 02D9  
                     u2542 0144                       u2470 0067                       u1910 05EB  
                     u1830 059A                       u1750 0527                       u1742 0514  
                     u1670 049A                       u1590 044A                       u2711 02D8  
                     u2631 0266                       u2543 014B                       u2471 0066  
                     u1911 05EA                       u1831 0599                       u1751 0528  
                     u1743 0519                       u1671 0499                       u1591 0449  
                     u2720 02ED                       u2640 0282                       u2632 026D  
                     u2480 006C                       u1920 05F0                       u1840 059F  
                     u1760 0545                       u1752 052D                       u1744 051A  
                     u2800 0E60                       u2721 02EC                       u2633 0274  
                     u2625 0255                       u2561 0173                       u2481 006B  
                     u1921 05EF                       u1841 059E                       u1761 0544  
                     u1753 052E                       u1745 051F                       u1681 04B0  
                     u2801 0E5F                       u3097 0FF6                       u2730 02F4  
                     u2562 017A                       u2490 0083                       u1930 05FD  
                     u1850 05A5                       u1770 056A                       u1746 0520  
                     u1690 04C2                       u1682 04B7                       u2810 0E64  
                     u2395 0789                       u2731 02F3                       u2651 028E  
                     u2571 01A0                       u2563 0181                       u2555 014D  
                     u2491 0082                       u1931 05FC                       u1851 05A4  
                     u1771 0569                       u1691 04C1                       u1683 04BE  
                     u1595 0446                       u2811 0E63                       u2740 02FA  
                     u2652 0295                       u2572 01A7                       u1940 0602  
                     u1860 05AC                       u1780 056F                       u2900 0EE1  
                     u2820 0E84                       u2741 02F9                       u2653 029C  
                     u2645 027D                       u2573 01AE                       u1941 0601  
                     u1861 05AB                       u1781 056E                       u2901 0EE0  
                     u2821 0E83                       u2750 030C                       u1950 0613  
                     u1870 05B2                       u2910 0EF6                       u2751 030B  
                     u2591 01D6                       u1951 0612                       u1871 05B1  
                     u1960 0CC1                       u2760 031B                       u2680 02C0  
                     u2592 01DD                       u1880 05C4                       u2920 0F06  
                     u2840 0EA5                       u1961 0CC0                       u2681 02BF  
                     u2665 029E                       u2593 01E4                       u2585 01B0  
                     u1881 05C3                       u2921 0F05                       u2841 0EA4  
                     u2770 0338                       u1890 05D3                       u2930 0F0A  
                     u2771 0337                       u2675 02B5                       u1795 057A  
                     u2931 0F09                       u2915 0EF1                       u2835 0E97  
                     _PEIE 005E                       u2940 0D8C                       u1980 0CD5  
                     u2780 0352                       u2860 0EC7                       u2941 0D8B  
                     u1981 0CD4                       u2781 0351                       u2765 0316  
                     u2861 0EC6                       u2790 0370                       u1975 0CC8  
                     u2791 036F                       u2775 0334                       u2695 02C3  
                     u1895 05CE                       u2855 0EB9                       u2960 0DB7  
                     u2880 0ED7                       u2961 0DB6                       u2785 034E  
                     u2881 0ED6                       u2890 0EDD                       u2955 0D94  
                     u2891 0EDC                       u2875 0ECC                       u2980 0CB0  
                     u2981 0CAF                       u2990 0DE9                       u2975 0DBF  
                     u2991 0DE8          ?_Lcd_Write_String 0070                       _main 0F14  
                     btemp 007E                       start 000C         ??_Lcd_Write_String 0076  
          ___fldiv@new_exp 005E            __end_of_Lcd_Cmd 0C46                      ??_isr 0070  
            ___fltol@sign1 0025            __end_of___fladd 0615                      ?_main 0070  
          __end_of___fldiv 07F2            __end_of___flmul 0385            __end_of___flsub 0C88  
          __end_of___fltol 0E58                      _ANSEL 0188                      i1l170 0D01  
                    _PORTA 0005                      _PORTB 0006                      _PORTC 0007  
                    _PORTD 0008                      _PORTE 0009    __size_of_Lcd_Set_Cursor 0058  
                    _TRISA 0085                      _TRISB 0086                      _TRISC 0087  
                    _TRISD 0088                      _SSPIE 0463                      _TRISE 0089  
                    _SSPIF 0063                      pclath 000A                      status 0003  
                    wtemp0 007E           __end_of_Lcd_Init 0D84           __end_of_Lcd_Port 0C24  
          __initialization 000F               __end_of_main 1000                     ??_main 0066  
       __size_of_Lcd_Clear 000D                     _ADRESH 001E                     _ADRESL 009E  
                   _ANSELH 0189                     i1l1541 0CFE                     i1l1535 0CDA  
                   i1l1537 0CE0                     i1l1539 0CF7                     u316_27 0CFC  
                   u149_20 0CE0                     u149_21 0CDF                  ??_Lcd_Cmd 0075  
  __size_of_Lcd_Write_Char 001E                     _SSPADD 0093                     _TRISC3 043B  
                   _TRISC4 043C                     _SSPCON 0014                     _SSPBUF 0013  
         __end_of___xxtofl 0F14                  ??___fladd 0028                  ??___fldiv 0054  
                ??___flmul 0032                  ??___flsub 0078                  ??___fltol 0020  
                   _an_sun 0069                     _buffer 00A0         __size_of__Umul8_16 0029  
                   saved_w 007E            Lcd_Set_Cursor@a 0023            Lcd_Set_Cursor@b 0020  
          Lcd_Set_Cursor@y 0025            Lcd_Set_Cursor@z 0024               ___xxtofl@arg 0026  
             ___xxtofl@exp 0025               ___xxtofl@val 0074    __end_of__initialization 0020  
        __end_of_Lcd_Clear 07FF                 ___fltol@f1 0074             __pcstackCOMMON 0070  
           _Lcd_Set_Cursor 0D84                  ?_Lcd_Init 0070                  ?_Lcd_Port 0070  
               __pbssBANK0 0069                 __pbssBANK1 00A0         __size_of_initSETUP 0030  
        __end_of__Umul8_16 0CDA                 __pmaintext 0F14                 __pintentry 0004  
__size_of_Lcd_Write_String 0029     __end_of_Lcd_Set_Cursor 0DDC                  ?___xxtofl 0074  
               ??_Lcd_Init 0020                 ??_Lcd_Port 0074                    _SSPCON2 0091  
                  _SSPSTAT 0094                 __stringtab 0800             _Lcd_Write_Char 0C46  
                  _Lcd_Cmd 0C2C                    ___fladd 0385                    ___fldiv 0615  
                  ___flmul 0024                    ___flsub 0C64                    ___fltol 0DDC  
        __end_of_initSETUP 0D38            ?_Lcd_Set_Cursor 0020                    __ptext1 0D08  
                  __ptext2 0E58                    __ptext3 0DDC                    __ptext4 0C64  
                  __ptext5 0385                    __ptext6 0024                    __ptext7 0CB1  
                  __ptext8 0615                    __ptext9 0C88               __size_of_isr 002E  
               ??___xxtofl 0020                    clrloop0 0C25                    _sun_pot 0078  
   __end_of_Lcd_Write_Char 0C64       end_of_initialization 0020                  Lcd_Port@a 0074  
              ___fladd@grs 0077              ___xxtofl@sign 0024                  _TRISCbits 0087  
              ___fldiv@grs 0060                ___fldiv@rem 0059            ?_Lcd_Write_Char 0070  
        Lcd_Write_String@a 0023          Lcd_Write_String@i 0024                ___flmul@grs 0038  
                _Lcd_Clear 07F2           _Lcd_Write_String 0C88        start_initialization 000F  
              __end_of_isr 0D08          __size_of_Lcd_Init 004C          __size_of_Lcd_Port 0006  
               ?_Lcd_Clear 0070                  __Umul8_16 0CB1            Lcd_Write_Char@a 0020  
          Lcd_Write_Char@y 0022                  ___fladd@a 0024                  ___fladd@b 0020  
                ___fldiv@a 004C                  ___fldiv@b 0050                  ___flmul@a 002E  
                ___flmul@b 002A                __pbssCOMMON 0078                  ___flsub@a 0044  
                ___flsub@b 0048                  ___latbits 0002              __pcstackBANK0 0020  
        __size_of___xxtofl 00BC                   ?_Lcd_Cmd 0070           ??_Lcd_Set_Cursor 0021  
                 ?___fladd 0020                   ?___fldiv 004C                   ?___flmul 002A  
                 ?___flsub 0044                   ?___fltol 0074                 ?__Umul8_16 0074  
                __pstrings 0800                  _initSETUP 0D08          interrupt_function 0004  
                clear_ram0 0C24                   Lcd_Cmd@a 0077                ??_Lcd_Clear 0078  
               _ADCON0bits 001F                __stringbase 0805                 _ADCON1bits 009F  
         ??_Lcd_Write_Char 0075                 ?_initSETUP 0070                   _Lcd_Init 0D38  
                 _Lcd_Port 0C1E   __end_of_Lcd_Write_String 0CB1           __size_of_Lcd_Cmd 001A  
              ??__Umul8_16 0076           __size_of___fladd 0290           __size_of___fldiv 01DD  
         __size_of___flmul 0361           __size_of___flsub 0024           __size_of___fltol 007C  
       __end_of__stringtab 0806                   ___xxtofl 0E58                   __ptext10 0C46  
                 __ptext11 0D84                   __ptext12 0D38                   __ptext13 07F2  
                 __ptext14 0C2C                   __ptext15 0C1E                   __ptext16 0CDA  
            __size_of_main 00EC                 _INTCONbits 000B                ??_initSETUP 0074  
       Lcd_Write_Char@temp 0021                   intlevel1 0000                  stringcode 0800  
               _OSCCONbits 008F         Lcd_Set_Cursor@temp 0026     __Umul8_16@multiplicand 0074  
                 stringdir 0800                   stringtab 0800                _SSPCON2bits 0091  
            ___fladd@signs 0074               ___fladd@aexp 0075               ___fladd@bexp 0076  
     __Umul8_16@multiplier 0024          __Umul8_16@product 0020  
