

Microchip MPLAB XC8 Assembler V2.32 build 20210201212658 
                                                                                               Tue Sep 07 14:50:52 2021

Microchip MPLAB XC8 C Compiler v2.32 (Free license) build 20210201212658 Og1 
     1                           	processor	16F887
     2                           	pagewidth 120
     3                           	opt	flic
     4                           	psect	strings,global,class=STRING,delta=2,noexec
     5                           	psect	cinit,global,class=CODE,merge=1,delta=2
     6                           	psect	bssCOMMON,global,class=COMMON,space=1,delta=1,noexec
     7                           	psect	bssBANK0,global,class=BANK0,space=1,delta=1,noexec
     8                           	psect	bssBANK1,global,class=BANK1,space=1,delta=1,noexec
     9                           	psect	clrtext,global,class=CODE,delta=2
    10                           	psect	cstackBANK1,global,class=BANK1,space=1,delta=1,noexec
    11                           	psect	cstackCOMMON,global,class=COMMON,space=1,delta=1,noexec
    12                           	psect	cstackBANK0,global,class=BANK0,space=1,delta=1,noexec
    13                           	psect	maintext,global,class=CODE,split=1,delta=2
    14                           	psect	text1,local,class=CODE,merge=1,delta=2,group=1
    15                           	psect	text2,local,class=CODE,merge=1,delta=2,group=3
    16                           	psect	text3,local,class=CODE,merge=1,delta=2,group=2
    17                           	psect	text4,local,class=CODE,merge=1,delta=2,group=2
    18                           	psect	text5,local,class=CODE,merge=1,delta=2,group=2
    19                           	psect	text6,local,class=CODE,merge=1,delta=2
    20                           	psect	text7,local,class=CODE,merge=1,delta=2,group=2
    21                           	psect	text8,local,class=CODE,merge=1,delta=2,group=2
    22                           	psect	text9,local,class=CODE,merge=1,delta=2,group=2
    23                           	psect	text10,local,class=CODE,merge=1,delta=2,group=2
    24                           	psect	text11,local,class=CODE,merge=1,delta=2,group=2
    25                           	psect	text12,local,class=CODE,merge=1,delta=2,group=2
    26                           	psect	text13,local,class=CODE,merge=1,delta=2,group=2
    27                           	psect	text14,local,class=CODE,merge=1,delta=2
    28                           	psect	text15,local,class=CODE,merge=1,delta=2
    29                           	psect	text16,local,class=CODE,merge=1,delta=2
    30                           	psect	text17,local,class=CODE,merge=1,delta=2
    31                           	psect	text18,local,class=CODE,merge=1,delta=2
    32                           	psect	text19,local,class=CODE,merge=1,delta=2
    33                           	psect	text20,local,class=CODE,merge=1,delta=2
    34                           	psect	text21,local,class=CODE,merge=1,delta=2
    35                           	psect	intentry,global,class=CODE,delta=2
    36                           	psect	config,global,abs,ovrld,class=CONFIG,space=4,delta=2,noexec
    37                           	dabs	1,0x7E,2
    38  0000                     
    39                           ; Version 2.20
    40                           ; Generated 12/02/2020 GMT
    41                           ; 
    42                           ; Copyright © 2020, Microchip Technology Inc. and its subsidiaries ("Microchip")
    43                           ; All rights reserved.
    44                           ; 
    45                           ; This software is developed by Microchip Technology Inc. and its subsidiaries ("Microch
      +                          ip").
    46                           ; 
    47                           ; Redistribution and use in source and binary forms, with or without modification, are
    48                           ; permitted provided that the following conditions are met:
    49                           ; 
    50                           ;     1. Redistributions of source code must retain the above copyright notice, this lis
      +                          t of
    51                           ;        conditions and the following disclaimer.
    52                           ; 
    53                           ;     2. Redistributions in binary form must reproduce the above copyright notice, this 
      +                          list
    54                           ;        of conditions and the following disclaimer in the documentation and/or other
    55                           ;        materials provided with the distribution.
    56                           ; 
    57                           ;     3. Microchip's name may not be used to endorse or promote products derived from th
      +                          is
    58                           ;        software without specific prior written permission.
    59                           ; 
    60                           ; THIS SOFTWARE IS PROVIDED BY MICROCHIP "AS IS" AND ANY EXPRESS OR IMPLIED WARRANTIES,
    61                           ; INCLUDING, BUT NOT LIMITED TO, THE IMPLIED WARRANTIES OF MERCHANTABILITY AND FITNESS F
      +                          OR
    62                           ; PURPOSE ARE DISCLAIMED.  IN NO EVENT SHALL MICROCHIP BE LIABLE FOR ANY DIRECT, INDIREC
      +                          T,
    63                           ; INCIDENTAL, SPECIAL, EXEMPLARY, OR CONSEQUENTIAL DAMAGES (INCLUDING BUT NOT LIMITED TO
    64                           ; PROCUREMENT OF SUBSTITUTE GOODS OR SERVICES; LOSS OF USE, DATA OR PROFITS; OR BUSINESS
    65                           ; INTERRUPTION) HOWSOEVER CAUSED AND ON ANY THEORY OF LIABILITY, WHETHER IN CONTRACT, ST
      +                          RICT
    66                           ; LIABILITY, OR TORT (INCLUDING NEGLIGENCE OR OTHERWISE) ARISING IN ANY WAY OUT OF THE U
      +                          SE OF
    67                           ; THIS SOFTWARE, EVEN IF ADVISED OF THE POSSIBILITY OF SUCH DAMAGE.
    68                           ; 
    69                           ; 
    70                           ; Code-generator required, PIC16F887 Definitions
    71                           ; 
    72                           ; SFR Addresses
    73  0000                     	;# 
    74  0001                     	;# 
    75  0002                     	;# 
    76  0003                     	;# 
    77  0004                     	;# 
    78  0005                     	;# 
    79  0006                     	;# 
    80  0007                     	;# 
    81  0008                     	;# 
    82  0009                     	;# 
    83  000A                     	;# 
    84  000B                     	;# 
    85  000C                     	;# 
    86  000D                     	;# 
    87  000E                     	;# 
    88  000E                     	;# 
    89  000F                     	;# 
    90  0010                     	;# 
    91  0011                     	;# 
    92  0012                     	;# 
    93  0013                     	;# 
    94  0014                     	;# 
    95  0015                     	;# 
    96  0015                     	;# 
    97  0016                     	;# 
    98  0017                     	;# 
    99  0018                     	;# 
   100  0019                     	;# 
   101  001A                     	;# 
   102  001B                     	;# 
   103  001B                     	;# 
   104  001C                     	;# 
   105  001D                     	;# 
   106  001E                     	;# 
   107  001F                     	;# 
   108  0081                     	;# 
   109  0085                     	;# 
   110  0086                     	;# 
   111  0087                     	;# 
   112  0088                     	;# 
   113  0089                     	;# 
   114  008C                     	;# 
   115  008D                     	;# 
   116  008E                     	;# 
   117  008F                     	;# 
   118  0090                     	;# 
   119  0091                     	;# 
   120  0092                     	;# 
   121  0093                     	;# 
   122  0093                     	;# 
   123  0093                     	;# 
   124  0094                     	;# 
   125  0095                     	;# 
   126  0096                     	;# 
   127  0097                     	;# 
   128  0098                     	;# 
   129  0099                     	;# 
   130  009A                     	;# 
   131  009B                     	;# 
   132  009C                     	;# 
   133  009D                     	;# 
   134  009E                     	;# 
   135  009F                     	;# 
   136  0105                     	;# 
   137  0107                     	;# 
   138  0108                     	;# 
   139  0109                     	;# 
   140  010C                     	;# 
   141  010C                     	;# 
   142  010D                     	;# 
   143  010E                     	;# 
   144  010F                     	;# 
   145  0185                     	;# 
   146  0187                     	;# 
   147  0188                     	;# 
   148  0189                     	;# 
   149  018C                     	;# 
   150  018D                     	;# 
   151  0000                     	;# 
   152  0001                     	;# 
   153  0002                     	;# 
   154  0003                     	;# 
   155  0004                     	;# 
   156  0005                     	;# 
   157  0006                     	;# 
   158  0007                     	;# 
   159  0008                     	;# 
   160  0009                     	;# 
   161  000A                     	;# 
   162  000B                     	;# 
   163  000C                     	;# 
   164  000D                     	;# 
   165  000E                     	;# 
   166  000E                     	;# 
   167  000F                     	;# 
   168  0010                     	;# 
   169  0011                     	;# 
   170  0012                     	;# 
   171  0013                     	;# 
   172  0014                     	;# 
   173  0015                     	;# 
   174  0015                     	;# 
   175  0016                     	;# 
   176  0017                     	;# 
   177  0018                     	;# 
   178  0019                     	;# 
   179  001A                     	;# 
   180  001B                     	;# 
   181  001B                     	;# 
   182  001C                     	;# 
   183  001D                     	;# 
   184  001E                     	;# 
   185  001F                     	;# 
   186  0081                     	;# 
   187  0085                     	;# 
   188  0086                     	;# 
   189  0087                     	;# 
   190  0088                     	;# 
   191  0089                     	;# 
   192  008C                     	;# 
   193  008D                     	;# 
   194  008E                     	;# 
   195  008F                     	;# 
   196  0090                     	;# 
   197  0091                     	;# 
   198  0092                     	;# 
   199  0093                     	;# 
   200  0093                     	;# 
   201  0093                     	;# 
   202  0094                     	;# 
   203  0095                     	;# 
   204  0096                     	;# 
   205  0097                     	;# 
   206  0098                     	;# 
   207  0099                     	;# 
   208  009A                     	;# 
   209  009B                     	;# 
   210  009C                     	;# 
   211  009D                     	;# 
   212  009E                     	;# 
   213  009F                     	;# 
   214  0105                     	;# 
   215  0107                     	;# 
   216  0108                     	;# 
   217  0109                     	;# 
   218  010C                     	;# 
   219  010C                     	;# 
   220  010D                     	;# 
   221  010E                     	;# 
   222  010F                     	;# 
   223  0185                     	;# 
   224  0187                     	;# 
   225  0188                     	;# 
   226  0189                     	;# 
   227  018C                     	;# 
   228  018D                     	;# 
   229  0000                     	;# 
   230  0001                     	;# 
   231  0002                     	;# 
   232  0003                     	;# 
   233  0004                     	;# 
   234  0005                     	;# 
   235  0006                     	;# 
   236  0007                     	;# 
   237  0008                     	;# 
   238  0009                     	;# 
   239  000A                     	;# 
   240  000B                     	;# 
   241  000C                     	;# 
   242  000D                     	;# 
   243  000E                     	;# 
   244  000E                     	;# 
   245  000F                     	;# 
   246  0010                     	;# 
   247  0011                     	;# 
   248  0012                     	;# 
   249  0013                     	;# 
   250  0014                     	;# 
   251  0015                     	;# 
   252  0015                     	;# 
   253  0016                     	;# 
   254  0017                     	;# 
   255  0018                     	;# 
   256  0019                     	;# 
   257  001A                     	;# 
   258  001B                     	;# 
   259  001B                     	;# 
   260  001C                     	;# 
   261  001D                     	;# 
   262  001E                     	;# 
   263  001F                     	;# 
   264  0081                     	;# 
   265  0085                     	;# 
   266  0086                     	;# 
   267  0087                     	;# 
   268  0088                     	;# 
   269  0089                     	;# 
   270  008C                     	;# 
   271  008D                     	;# 
   272  008E                     	;# 
   273  008F                     	;# 
   274  0090                     	;# 
   275  0091                     	;# 
   276  0092                     	;# 
   277  0093                     	;# 
   278  0093                     	;# 
   279  0093                     	;# 
   280  0094                     	;# 
   281  0095                     	;# 
   282  0096                     	;# 
   283  0097                     	;# 
   284  0098                     	;# 
   285  0099                     	;# 
   286  009A                     	;# 
   287  009B                     	;# 
   288  009C                     	;# 
   289  009D                     	;# 
   290  009E                     	;# 
   291  009F                     	;# 
   292  0105                     	;# 
   293  0107                     	;# 
   294  0108                     	;# 
   295  0109                     	;# 
   296  010C                     	;# 
   297  010C                     	;# 
   298  010D                     	;# 
   299  010E                     	;# 
   300  010F                     	;# 
   301  0185                     	;# 
   302  0187                     	;# 
   303  0188                     	;# 
   304  0189                     	;# 
   305  018C                     	;# 
   306  018D                     	;# 
   307  0000                     	;# 
   308  0001                     	;# 
   309  0002                     	;# 
   310  0003                     	;# 
   311  0004                     	;# 
   312  0005                     	;# 
   313  0006                     	;# 
   314  0007                     	;# 
   315  0008                     	;# 
   316  0009                     	;# 
   317  000A                     	;# 
   318  000B                     	;# 
   319  000C                     	;# 
   320  000D                     	;# 
   321  000E                     	;# 
   322  000E                     	;# 
   323  000F                     	;# 
   324  0010                     	;# 
   325  0011                     	;# 
   326  0012                     	;# 
   327  0013                     	;# 
   328  0014                     	;# 
   329  0015                     	;# 
   330  0015                     	;# 
   331  0016                     	;# 
   332  0017                     	;# 
   333  0018                     	;# 
   334  0019                     	;# 
   335  001A                     	;# 
   336  001B                     	;# 
   337  001B                     	;# 
   338  001C                     	;# 
   339  001D                     	;# 
   340  001E                     	;# 
   341  001F                     	;# 
   342  0081                     	;# 
   343  0085                     	;# 
   344  0086                     	;# 
   345  0087                     	;# 
   346  0088                     	;# 
   347  0089                     	;# 
   348  008C                     	;# 
   349  008D                     	;# 
   350  008E                     	;# 
   351  008F                     	;# 
   352  0090                     	;# 
   353  0091                     	;# 
   354  0092                     	;# 
   355  0093                     	;# 
   356  0093                     	;# 
   357  0093                     	;# 
   358  0094                     	;# 
   359  0095                     	;# 
   360  0096                     	;# 
   361  0097                     	;# 
   362  0098                     	;# 
   363  0099                     	;# 
   364  009A                     	;# 
   365  009B                     	;# 
   366  009C                     	;# 
   367  009D                     	;# 
   368  009E                     	;# 
   369  009F                     	;# 
   370  0105                     	;# 
   371  0107                     	;# 
   372  0108                     	;# 
   373  0109                     	;# 
   374  010C                     	;# 
   375  010C                     	;# 
   376  010D                     	;# 
   377  010E                     	;# 
   378  010F                     	;# 
   379  0185                     	;# 
   380  0187                     	;# 
   381  0188                     	;# 
   382  0189                     	;# 
   383  018C                     	;# 
   384  018D                     	;# 
   385                           
   386                           	psect	strings
   387  0800                     __pstrings:
   388  0800                     stringtab:
   389  0800                     __stringtab:
   390  0800                     stringcode:	
   391                           ;	String table - string pointers are 1 byte each
   392                           
   393  0800                     stringdir:
   394  0800  3008               	movlw	high stringdir
   395  0801  008A               	movwf	10
   396  0802  0804               	movf	4,w
   397  0803  0A84               	incf	4,f
   398  0804  0782               	addwf	2,f
   399  0805                     __stringbase:
   400  0805  3400               	retlw	0
   401  0806                     __end_of__stringtab:
   402  0806                     _dpowers:
   403  0806  3401               	retlw	1
   404  0807  3400               	retlw	0
   405  0808  340A               	retlw	10
   406  0809  3400               	retlw	0
   407  080A  3464               	retlw	100
   408  080B  3400               	retlw	0
   409  080C  34E8               	retlw	232
   410  080D  3403               	retlw	3
   411  080E  3410               	retlw	16
   412  080F  3427               	retlw	39
   413  0810                     __end_of_dpowers:
   414  000B                     _INTCONbits	set	11
   415  0007                     _PORTC	set	7
   416  0006                     _PORTB	set	6
   417  0005                     _PORTA	set	5
   418  0009                     _PORTE	set	9
   419  001E                     _ADRESH	set	30
   420  001F                     _ADCON0bits	set	31
   421  0008                     _PORTD	set	8
   422  0013                     _SSPBUF	set	19
   423  0014                     _SSPCON	set	20
   424  0066                     _ADIF	set	102
   425  0049                     _RE1	set	73
   426  0048                     _RE0	set	72
   427  0063                     _SSPIF	set	99
   428  005E                     _PEIE	set	94
   429  005F                     _GIE	set	95
   430  009F                     _ADCON1bits	set	159
   431  008F                     _OSCCONbits	set	143
   432  0089                     _TRISE	set	137
   433  0088                     _TRISD	set	136
   434  0087                     _TRISC	set	135
   435  0086                     _TRISB	set	134
   436  0085                     _TRISA	set	133
   437  009E                     _ADRESL	set	158
   438  0091                     _SSPCON2bits	set	145
   439  0087                     _TRISCbits	set	135
   440  0094                     _SSPSTAT	set	148
   441  0093                     _SSPADD	set	147
   442  0091                     _SSPCON2	set	145
   443  0463                     _SSPIE	set	1123
   444  043C                     _TRISC4	set	1084
   445  043B                     _TRISC3	set	1083
   446  0189                     _ANSELH	set	393
   447  0188                     _ANSEL	set	392
   448  0810                     STR_1:
   449  0810  3420               	retlw	32	;' '
   450  0811  3453               	retlw	83	;'S'
   451  0812  3431               	retlw	49	;'1'
   452  0813  343A               	retlw	58	;':'
   453  0814  3420               	retlw	32	;' '
   454  0815  3420               	retlw	32	;' '
   455  0816  3420               	retlw	32	;' '
   456  0817  3453               	retlw	83	;'S'
   457  0818  3432               	retlw	50	;'2'
   458  0819  343A               	retlw	58	;':'
   459  081A  3420               	retlw	32	;' '
   460  081B  3420               	retlw	32	;' '
   461  081C  3420               	retlw	32	;' '
   462  081D  3453               	retlw	83	;'S'
   463  081E  3433               	retlw	51	;'3'
   464  081F  343A               	retlw	58	;':'
   465  0820  3400               	retlw	0
   466  0821                     STR_2:
   467  0821  344C               	retlw	76	;'L'
   468  0822  3443               	retlw	67	;'C'
   469  0823  3444               	retlw	68	;'D'
   470  0824  343A               	retlw	58	;':'
   471  0825  3420               	retlw	32	;' '
   472  0826  3425               	retlw	37	;'%'
   473  0827  3436               	retlw	54	;'6'
   474  0828  3475               	retlw	117	;'u'
   475  0829  3400               	retlw	0
   476                           
   477                           	psect	cinit
   478  000F                     start_initialization:	
   479                           ; #config settings
   480                           
   481  000F                     __initialization:
   482                           
   483                           ; Clear objects allocated to COMMON
   484  000F  01F6               	clrf	__pbssCOMMON& (0+127)
   485  0010  01F7               	clrf	(__pbssCOMMON+1)& (0+127)
   486  0011  01F8               	clrf	(__pbssCOMMON+2)& (0+127)
   487  0012  01F9               	clrf	(__pbssCOMMON+3)& (0+127)
   488                           
   489                           ; Clear objects allocated to BANK0
   490  0013  1283               	bcf	3,5	;RP0=0, select bank0
   491  0014  1303               	bcf	3,6	;RP1=0, select bank0
   492  0015  01EA               	clrf	__pbssBANK0& (0+127)
   493  0016  01EB               	clrf	(__pbssBANK0+1)& (0+127)
   494  0017  01EC               	clrf	(__pbssBANK0+2)& (0+127)
   495  0018  01ED               	clrf	(__pbssBANK0+3)& (0+127)
   496  0019  01EE               	clrf	(__pbssBANK0+4)& (0+127)
   497  001A  01EF               	clrf	(__pbssBANK0+5)& (0+127)
   498                           
   499                           ; Clear objects allocated to BANK1
   500  001B  1383               	bcf	3,7	;select IRP bank0
   501  001C  30A0               	movlw	low __pbssBANK1
   502  001D  0084               	movwf	4
   503  001E  30B0               	movlw	low (__pbssBANK1+16)
   504  001F  120A  158A  220A  120A  118A  	fcall	clear_ram0
   505  0024                     end_of_initialization:	
   506                           ;End of C runtime variable initialization code
   507                           
   508  0024                     __end_of__initialization:
   509  0024  0183               	clrf	3
   510  0025  120A  158A  2DB2   	ljmp	_main	;jump to C main() function
   511                           
   512                           	psect	bssCOMMON
   513  0076                     __pbssCOMMON:
   514  0076                     _LDR:
   515  0076                     	ds	4
   516                           
   517                           	psect	bssBANK0
   518  006A                     __pbssBANK0:
   519  006A                     _an_sun:
   520  006A                     	ds	4
   521  006E                     _sun_pot:
   522  006E                     	ds	2
   523                           
   524                           	psect	bssBANK1
   525  00A0                     __pbssBANK1:
   526  00A0                     _buffer:
   527  00A0                     	ds	16
   528                           
   529                           	psect	clrtext
   530  0A0A                     clear_ram0:	
   531                           ;	Called with FSR containing the base address, and
   532                           ;	W with the last address+1
   533                           
   534  0A0A  0064               	clrwdt	;clear the watchdog before getting into this loop
   535  0A0B                     clrloop0:
   536  0A0B  0180               	clrf	0	;clear RAM location pointed to by FSR
   537  0A0C  0A84               	incf	4,f	;increment pointer
   538  0A0D  0604               	xorwf	4,w	;XOR with final address
   539  0A0E  1903               	btfsc	3,2	;have we reached the end yet?
   540  0A0F  3400               	retlw	0	;all done for this memory range, return
   541  0A10  0604               	xorwf	4,w	;XOR again to restore value
   542  0A11  2A0B               	goto	clrloop0	;do the next byte
   543                           
   544                           	psect	cstackBANK1
   545  00B0                     __pcstackBANK1:
   546  00B0                     ??_main:
   547                           
   548                           ; 1 bytes @ 0x0
   549  00B0                     	ds	3
   550                           
   551                           	psect	cstackCOMMON
   552  0070                     __pcstackCOMMON:
   553  0070                     ?_isdigit:
   554  0070                     ?_initSETUP:	
   555                           ; 1 bit 
   556                           
   557  0070                     ?_Lcd_Port:	
   558                           ; 1 bytes @ 0x0
   559                           
   560  0070                     ?_Lcd_Cmd:	
   561                           ; 1 bytes @ 0x0
   562                           
   563  0070                     ?_Lcd_Clear:	
   564                           ; 1 bytes @ 0x0
   565                           
   566  0070                     ?_Lcd_Init:	
   567                           ; 1 bytes @ 0x0
   568                           
   569  0070                     ?_Lcd_Write_Char:	
   570                           ; 1 bytes @ 0x0
   571                           
   572  0070                     ?_Lcd_Write_String:	
   573                           ; 1 bytes @ 0x0
   574                           
   575  0070                     ?_main:	
   576                           ; 1 bytes @ 0x0
   577                           
   578  0070                     ?_isr:	
   579                           ; 1 bytes @ 0x0
   580                           
   581  0070                     ??_isr:	
   582                           ; 1 bytes @ 0x0
   583                           
   584                           
   585                           ; 1 bytes @ 0x0
   586  0070                     	ds	4
   587  0074                     ??_initSETUP:
   588  0074                     ??_isdigit:	
   589                           ; 1 bytes @ 0x4
   590                           
   591  0074                     ??_Lcd_Port:	
   592                           ; 1 bytes @ 0x4
   593                           
   594  0074                     ??___wmul:	
   595                           ; 1 bytes @ 0x4
   596                           
   597  0074                     ??___lwdiv:	
   598                           ; 1 bytes @ 0x4
   599                           
   600  0074                     ?__Umul8_16:	
   601                           ; 1 bytes @ 0x4
   602                           
   603  0074                     Lcd_Port@a:	
   604                           ; 2 bytes @ 0x4
   605                           
   606  0074                     ___fltol@sign1:	
   607                           ; 1 bytes @ 0x4
   608                           
   609  0074                     __Umul8_16@multiplicand:	
   610                           ; 1 bytes @ 0x4
   611                           
   612  0074                     _isdigit$797:	
   613                           ; 1 bytes @ 0x4
   614                           
   615  0074                     ___wmul@product:	
   616                           ; 1 bytes @ 0x4
   617                           
   618                           
   619                           ; 2 bytes @ 0x4
   620  0074                     	ds	1
   621  0075                     ??_Lcd_Write_Char:
   622  0075                     ??___lwmod:	
   623                           ; 1 bytes @ 0x5
   624                           
   625  0075                     Lcd_Cmd@a:	
   626                           ; 1 bytes @ 0x5
   627                           
   628  0075                     ___fltol@exp1:	
   629                           ; 1 bytes @ 0x5
   630                           
   631  0075                     isdigit@c:	
   632                           ; 1 bytes @ 0x5
   633                           
   634                           
   635                           ; 1 bytes @ 0x5
   636  0075                     	ds	1
   637  0076                     ??_Lcd_Clear:
   638  0076                     ??_Lcd_Write_String:	
   639                           ; 1 bytes @ 0x6
   640                           
   641  0076                     ??___flsub:	
   642                           ; 1 bytes @ 0x6
   643                           
   644                           
   645                           	psect	cstackBANK0
   646  0020                     __pcstackBANK0:	
   647                           ; 1 bytes @ 0x6
   648                           
   649  0020                     ??__Umul8_16:
   650  0020                     ??_Lcd_Cmd:	
   651                           ; 1 bytes @ 0x0
   652                           
   653  0020                     ?___wmul:	
   654                           ; 1 bytes @ 0x0
   655                           
   656  0020                     ?___lwdiv:	
   657                           ; 2 bytes @ 0x0
   658                           
   659  0020                     ?___fltol:	
   660                           ; 2 bytes @ 0x0
   661                           
   662  0020                     ?___fladd:	
   663                           ; 4 bytes @ 0x0
   664                           
   665  0020                     ?___xxtofl:	
   666                           ; 4 bytes @ 0x0
   667                           
   668  0020                     Lcd_Write_Char@a:	
   669                           ; 4 bytes @ 0x0
   670                           
   671  0020                     ___wmul@multiplier:	
   672                           ; 1 bytes @ 0x0
   673                           
   674  0020                     ___lwdiv@divisor:	
   675                           ; 2 bytes @ 0x0
   676                           
   677  0020                     ___fltol@f1:	
   678                           ; 2 bytes @ 0x0
   679                           
   680  0020                     ___fladd@b:	
   681                           ; 4 bytes @ 0x0
   682                           
   683  0020                     ___xxtofl@val:	
   684                           ; 4 bytes @ 0x0
   685                           
   686                           
   687                           ; 4 bytes @ 0x0
   688  0020                     	ds	1
   689  0021                     Lcd_Write_Char@temp:
   690                           
   691                           ; 1 bytes @ 0x1
   692  0021                     	ds	1
   693  0022                     ?_Lcd_Set_Cursor:
   694  0022                     ??_Lcd_Init:	
   695                           ; 1 bytes @ 0x2
   696                           
   697  0022                     Lcd_Set_Cursor@b:	
   698                           ; 1 bytes @ 0x2
   699                           
   700  0022                     Lcd_Write_Char@y:	
   701                           ; 1 bytes @ 0x2
   702                           
   703  0022                     ___wmul@multiplicand:	
   704                           ; 1 bytes @ 0x2
   705                           
   706  0022                     ___lwdiv@dividend:	
   707                           ; 2 bytes @ 0x2
   708                           
   709  0022                     __Umul8_16@product:	
   710                           ; 2 bytes @ 0x2
   711                           
   712                           
   713                           ; 2 bytes @ 0x2
   714  0022                     	ds	1
   715  0023                     ??_Lcd_Set_Cursor:
   716  0023                     Lcd_Write_String@a:	
   717                           ; 1 bytes @ 0x3
   718                           
   719                           
   720                           ; 1 bytes @ 0x3
   721  0023                     	ds	1
   722  0024                     ??___fltol:
   723  0024                     ??___xxtofl:	
   724                           ; 1 bytes @ 0x4
   725                           
   726  0024                     ___lwdiv@counter:	
   727                           ; 1 bytes @ 0x4
   728                           
   729  0024                     Lcd_Write_String@i:	
   730                           ; 1 bytes @ 0x4
   731                           
   732  0024                     __Umul8_16@word_mpld:	
   733                           ; 2 bytes @ 0x4
   734                           
   735  0024                     ___fladd@a:	
   736                           ; 2 bytes @ 0x4
   737                           
   738                           
   739                           ; 4 bytes @ 0x4
   740  0024                     	ds	1
   741  0025                     Lcd_Set_Cursor@a:
   742  0025                     ___lwdiv@quotient:	
   743                           ; 1 bytes @ 0x5
   744                           
   745                           
   746                           ; 2 bytes @ 0x5
   747  0025                     	ds	1
   748  0026                     Lcd_Set_Cursor@z:
   749  0026                     __Umul8_16@multiplier:	
   750                           ; 1 bytes @ 0x6
   751                           
   752                           
   753                           ; 1 bytes @ 0x6
   754  0026                     	ds	1
   755  0027                     ?___lwmod:
   756  0027                     Lcd_Set_Cursor@y:	
   757                           ; 2 bytes @ 0x7
   758                           
   759  0027                     ___lwmod@divisor:	
   760                           ; 1 bytes @ 0x7
   761                           
   762                           
   763                           ; 2 bytes @ 0x7
   764  0027                     	ds	1
   765  0028                     ??___fladd:
   766  0028                     Lcd_Set_Cursor@temp:	
   767                           ; 1 bytes @ 0x8
   768                           
   769  0028                     ___xxtofl@sign:	
   770                           ; 1 bytes @ 0x8
   771                           
   772                           
   773                           ; 1 bytes @ 0x8
   774  0028                     	ds	1
   775  0029                     ___xxtofl@exp:
   776  0029                     ___lwmod@dividend:	
   777                           ; 1 bytes @ 0x9
   778                           
   779                           
   780                           ; 2 bytes @ 0x9
   781  0029                     	ds	1
   782  002A                     ___xxtofl@arg:
   783                           
   784                           ; 4 bytes @ 0xA
   785  002A                     	ds	1
   786  002B                     ___lwmod@counter:
   787                           
   788                           ; 1 bytes @ 0xB
   789  002B                     	ds	1
   790  002C                     ?_sprintf:
   791  002C                     sprintf@f:	
   792                           ; 2 bytes @ 0xC
   793                           
   794                           
   795                           ; 1 bytes @ 0xC
   796  002C                     	ds	2
   797  002E                     ?___flmul:
   798  002E                     ___flmul@b:	
   799                           ; 4 bytes @ 0xE
   800                           
   801                           
   802                           ; 4 bytes @ 0xE
   803  002E                     	ds	2
   804  0030                     ___fladd@signs:
   805                           
   806                           ; 1 bytes @ 0x10
   807  0030                     	ds	1
   808  0031                     ??_sprintf:
   809  0031                     ___fladd@aexp:	
   810                           ; 1 bytes @ 0x11
   811                           
   812                           
   813                           ; 1 bytes @ 0x11
   814  0031                     	ds	1
   815  0032                     ___fladd@bexp:
   816  0032                     ___flmul@a:	
   817                           ; 1 bytes @ 0x12
   818                           
   819                           
   820                           ; 4 bytes @ 0x12
   821  0032                     	ds	1
   822  0033                     ___fladd@grs:
   823                           
   824                           ; 1 bytes @ 0x13
   825  0033                     	ds	1
   826  0034                     sprintf@flag:
   827                           
   828                           ; 1 bytes @ 0x14
   829  0034                     	ds	1
   830  0035                     sprintf@ap:
   831                           
   832                           ; 1 bytes @ 0x15
   833  0035                     	ds	1
   834  0036                     ??___flmul:
   835  0036                     sprintf@val:	
   836                           ; 1 bytes @ 0x16
   837                           
   838                           
   839                           ; 2 bytes @ 0x16
   840  0036                     	ds	2
   841  0038                     sprintf@prec:
   842                           
   843                           ; 1 bytes @ 0x18
   844  0038                     	ds	1
   845  0039                     sprintf@sp:
   846                           
   847                           ; 1 bytes @ 0x19
   848  0039                     	ds	1
   849  003A                     sprintf@width:
   850                           
   851                           ; 2 bytes @ 0x1A
   852  003A                     	ds	1
   853  003B                     ___flmul@sign:
   854                           
   855                           ; 1 bytes @ 0x1B
   856  003B                     	ds	1
   857  003C                     sprintf@c:
   858  003C                     ___flmul@aexp:	
   859                           ; 1 bytes @ 0x1C
   860                           
   861                           
   862                           ; 1 bytes @ 0x1C
   863  003C                     	ds	1
   864  003D                     ___flmul@grs:
   865                           
   866                           ; 4 bytes @ 0x1D
   867  003D                     	ds	4
   868  0041                     ___flmul@bexp:
   869                           
   870                           ; 1 bytes @ 0x21
   871  0041                     	ds	1
   872  0042                     ___flmul@prod:
   873                           
   874                           ; 4 bytes @ 0x22
   875  0042                     	ds	4
   876  0046                     ___flmul@temp:
   877                           
   878                           ; 2 bytes @ 0x26
   879  0046                     	ds	2
   880  0048                     ?___flsub:
   881  0048                     ___flsub@a:	
   882                           ; 4 bytes @ 0x28
   883                           
   884                           
   885                           ; 4 bytes @ 0x28
   886  0048                     	ds	4
   887  004C                     ___flsub@b:
   888                           
   889                           ; 4 bytes @ 0x2C
   890  004C                     	ds	4
   891  0050                     ?___fldiv:
   892  0050                     ___fldiv@a:	
   893                           ; 4 bytes @ 0x30
   894                           
   895                           
   896                           ; 4 bytes @ 0x30
   897  0050                     	ds	4
   898  0054                     ___fldiv@b:
   899                           
   900                           ; 4 bytes @ 0x34
   901  0054                     	ds	4
   902  0058                     ??___fldiv:
   903                           
   904                           ; 1 bytes @ 0x38
   905  0058                     	ds	5
   906  005D                     ___fldiv@rem:
   907                           
   908                           ; 4 bytes @ 0x3D
   909  005D                     	ds	4
   910  0061                     ___fldiv@sign:
   911                           
   912                           ; 1 bytes @ 0x41
   913  0061                     	ds	1
   914  0062                     ___fldiv@new_exp:
   915                           
   916                           ; 2 bytes @ 0x42
   917  0062                     	ds	2
   918  0064                     ___fldiv@grs:
   919                           
   920                           ; 4 bytes @ 0x44
   921  0064                     	ds	4
   922  0068                     ___fldiv@bexp:
   923                           
   924                           ; 1 bytes @ 0x48
   925  0068                     	ds	1
   926  0069                     ___fldiv@aexp:
   927                           
   928                           ; 1 bytes @ 0x49
   929  0069                     	ds	1
   930                           
   931                           	psect	maintext
   932  0DB2                     __pmaintext:	
   933 ;;
   934 ;;Main: autosize = 0, tempsize = 3, incstack = 0, save=0
   935 ;;
   936 ;; *************** function _main *****************
   937 ;; Defined at:
   938 ;;		line 45 in file "Slave_1_main.c"
   939 ;; Parameters:    Size  Location     Type
   940 ;;		None
   941 ;; Auto vars:     Size  Location     Type
   942 ;;		None
   943 ;; Return value:  Size  Location     Type
   944 ;;                  1    wreg      void 
   945 ;; Registers used:
   946 ;;		wreg, fsr0l, fsr0h, status,2, status,0, btemp+1, pclath, cstack
   947 ;; Tracked objects:
   948 ;;		On entry : B00/0
   949 ;;		On exit  : 0/0
   950 ;;		Unchanged: 0/0
   951 ;; Data sizes:     COMMON   BANK0   BANK1   BANK3   BANK2
   952 ;;      Params:         0       0       0       0       0
   953 ;;      Locals:         0       0       0       0       0
   954 ;;      Temps:          0       0       3       0       0
   955 ;;      Totals:         0       0       3       0       0
   956 ;;Total ram usage:        3 bytes
   957 ;; Hardware stack levels required when called: 4
   958 ;; This function calls:
   959 ;;		_Lcd_Clear
   960 ;;		_Lcd_Init
   961 ;;		_Lcd_Set_Cursor
   962 ;;		_Lcd_Write_Char
   963 ;;		_Lcd_Write_String
   964 ;;		___fldiv
   965 ;;		___flmul
   966 ;;		___flsub
   967 ;;		___fltol
   968 ;;		___xxtofl
   969 ;;		_initSETUP
   970 ;;		_sprintf
   971 ;; This function is called by:
   972 ;;		Startup code after reset
   973 ;; This function uses a non-reentrant model
   974 ;;
   975                           
   976                           
   977                           ;psect for function _main
   978  0DB2                     _main:
   979  0DB2                     l3265:	
   980                           ;incstack = 0
   981                           ; Regs used in _main: [wreg-fsr0h+status,2+status,0+btemp+1+pclath+cstack]
   982                           
   983                           
   984                           ;Slave_1_main.c: 46:     initSETUP();
   985  0DB2  120A  158A  2324  120A  158A  	fcall	_initSETUP
   986                           
   987                           ;Slave_1_main.c: 47:     Lcd_Init();
   988  0DB7  120A  158A  23D6  120A  158A  	fcall	_Lcd_Init
   989                           
   990                           ;Slave_1_main.c: 48:     Lcd_Clear();
   991  0DBC  120A  158A  2212  120A  158A  	fcall	_Lcd_Clear
   992                           
   993                           ;Slave_1_main.c: 49:     Lcd_Set_Cursor(1,1);
   994  0DC1  1283               	bcf	3,5	;RP0=0, select bank0
   995  0DC2  1303               	bcf	3,6	;RP1=0, select bank0
   996  0DC3  01A2               	clrf	Lcd_Set_Cursor@b
   997  0DC4  0AA2               	incf	Lcd_Set_Cursor@b,f
   998  0DC5  3001               	movlw	1
   999  0DC6  120A  158A  2422  120A  158A  	fcall	_Lcd_Set_Cursor
  1000  0DCB                     l3267:
  1001                           
  1002                           ;Slave_1_main.c: 50:     Lcd_Write_String(" S1:   S2:   S3:");
  1003  0DCB  300B               	movlw	(low ((STR_1-__stringbase)| (0+32768)))& (0+255)
  1004  0DCC  120A  158A  22A4  120A  158A  	fcall	_Lcd_Write_String
  1005  0DD1                     l3269:
  1006                           
  1007                           ;Slave_1_main.c: 51:     ADCON0bits.GO = 1;
  1008  0DD1  1283               	bcf	3,5	;RP0=0, select bank0
  1009  0DD2  1303               	bcf	3,6	;RP1=0, select bank0
  1010  0DD3  149F               	bsf	31,1	;volatile
  1011  0DD4                     l3271:
  1012                           
  1013                           ;Slave_1_main.c: 53:         an_sun = (48.8758*sun_pot)/(5.0-(0.00488758*sun_pot));
  1014  0DD4  303B               	movlw	59
  1015  0DD5  1283               	bcf	3,5	;RP0=0, select bank0
  1016  0DD6  1303               	bcf	3,6	;RP1=0, select bank0
  1017  0DD7  00B1               	movwf	___flmul@b+3
  1018  0DD8  30A0               	movlw	160
  1019  0DD9  00B0               	movwf	___flmul@b+2
  1020  0DDA  3027               	movlw	39
  1021  0DDB  00AF               	movwf	___flmul@b+1
  1022  0DDC  30FE               	movlw	254
  1023  0DDD  00AE               	movwf	___flmul@b
  1024  0DDE  086E               	movf	_sun_pot,w
  1025  0DDF  00A0               	movwf	___xxtofl@val
  1026  0DE0  086F               	movf	_sun_pot+1,w
  1027  0DE1  00A1               	movwf	___xxtofl@val+1
  1028  0DE2  01A2               	clrf	___xxtofl@val+2
  1029  0DE3  01A3               	clrf	___xxtofl@val+3
  1030  0DE4  3000               	movlw	0
  1031  0DE5  120A  158A  24F6  120A  158A  	fcall	___xxtofl
  1032  0DEA  1283               	bcf	3,5	;RP0=0, select bank0
  1033  0DEB  1303               	bcf	3,6	;RP1=0, select bank0
  1034  0DEC  0823               	movf	?___xxtofl+3,w
  1035  0DED  00B5               	movwf	___flmul@a+3
  1036  0DEE  0822               	movf	?___xxtofl+2,w
  1037  0DEF  00B4               	movwf	___flmul@a+2
  1038  0DF0  0821               	movf	?___xxtofl+1,w
  1039  0DF1  00B3               	movwf	___flmul@a+1
  1040  0DF2  0820               	movf	?___xxtofl,w
  1041  0DF3  00B2               	movwf	___flmul@a
  1042  0DF4  120A  118A  2028  120A  158A  	fcall	___flmul
  1043  0DF9  1283               	bcf	3,5	;RP0=0, select bank0
  1044  0DFA  1303               	bcf	3,6	;RP1=0, select bank0
  1045  0DFB  0831               	movf	?___flmul+3,w
  1046  0DFC  00CB               	movwf	___flsub@a+3
  1047  0DFD  0830               	movf	?___flmul+2,w
  1048  0DFE  00CA               	movwf	___flsub@a+2
  1049  0DFF  082F               	movf	?___flmul+1,w
  1050  0E00  00C9               	movwf	___flsub@a+1
  1051  0E01  082E               	movf	?___flmul,w
  1052  0E02  00C8               	movwf	___flsub@a
  1053  0E03  3040               	movlw	64
  1054  0E04  00CF               	movwf	___flsub@b+3
  1055  0E05  30A0               	movlw	160
  1056  0E06  00CE               	movwf	___flsub@b+2
  1057  0E07  3000               	movlw	0
  1058  0E08  00CD               	movwf	___flsub@b+1
  1059  0E09  3000               	movlw	0
  1060  0E0A  00CC               	movwf	___flsub@b
  1061  0E0B  120A  158A  2259  120A  158A  	fcall	___flsub
  1062  0E10  1283               	bcf	3,5	;RP0=0, select bank0
  1063  0E11  1303               	bcf	3,6	;RP1=0, select bank0
  1064  0E12  084B               	movf	?___flsub+3,w
  1065  0E13  00D3               	movwf	___fldiv@a+3
  1066  0E14  084A               	movf	?___flsub+2,w
  1067  0E15  00D2               	movwf	___fldiv@a+2
  1068  0E16  0849               	movf	?___flsub+1,w
  1069  0E17  00D1               	movwf	___fldiv@a+1
  1070  0E18  0848               	movf	?___flsub,w
  1071  0E19  00D0               	movwf	___fldiv@a
  1072  0E1A  3042               	movlw	66
  1073  0E1B  00B1               	movwf	___flmul@b+3
  1074  0E1C  3043               	movlw	67
  1075  0E1D  00B0               	movwf	___flmul@b+2
  1076  0E1E  3080               	movlw	128
  1077  0E1F  00AF               	movwf	___flmul@b+1
  1078  0E20  30D2               	movlw	210
  1079  0E21  00AE               	movwf	___flmul@b
  1080  0E22  086E               	movf	_sun_pot,w
  1081  0E23  00A0               	movwf	___xxtofl@val
  1082  0E24  086F               	movf	_sun_pot+1,w
  1083  0E25  00A1               	movwf	___xxtofl@val+1
  1084  0E26  01A2               	clrf	___xxtofl@val+2
  1085  0E27  01A3               	clrf	___xxtofl@val+3
  1086  0E28  3000               	movlw	0
  1087  0E29  120A  158A  24F6  120A  158A  	fcall	___xxtofl
  1088  0E2E  1283               	bcf	3,5	;RP0=0, select bank0
  1089  0E2F  1303               	bcf	3,6	;RP1=0, select bank0
  1090  0E30  0823               	movf	?___xxtofl+3,w
  1091  0E31  00B5               	movwf	___flmul@a+3
  1092  0E32  0822               	movf	?___xxtofl+2,w
  1093  0E33  00B4               	movwf	___flmul@a+2
  1094  0E34  0821               	movf	?___xxtofl+1,w
  1095  0E35  00B3               	movwf	___flmul@a+1
  1096  0E36  0820               	movf	?___xxtofl,w
  1097  0E37  00B2               	movwf	___flmul@a
  1098  0E38  120A  118A  2028  120A  158A  	fcall	___flmul
  1099  0E3D  1283               	bcf	3,5	;RP0=0, select bank0
  1100  0E3E  1303               	bcf	3,6	;RP1=0, select bank0
  1101  0E3F  0831               	movf	?___flmul+3,w
  1102  0E40  00D7               	movwf	___fldiv@b+3
  1103  0E41  0830               	movf	?___flmul+2,w
  1104  0E42  00D6               	movwf	___fldiv@b+2
  1105  0E43  082F               	movf	?___flmul+1,w
  1106  0E44  00D5               	movwf	___fldiv@b+1
  1107  0E45  082E               	movf	?___flmul,w
  1108  0E46  00D4               	movwf	___fldiv@b
  1109  0E47  120A  118A  2611  120A  158A  	fcall	___fldiv
  1110  0E4C  1283               	bcf	3,5	;RP0=0, select bank0
  1111  0E4D  1303               	bcf	3,6	;RP1=0, select bank0
  1112  0E4E  0853               	movf	?___fldiv+3,w
  1113  0E4F  00ED               	movwf	_an_sun+3
  1114  0E50  0852               	movf	?___fldiv+2,w
  1115  0E51  00EC               	movwf	_an_sun+2
  1116  0E52  0851               	movf	?___fldiv+1,w
  1117  0E53  00EB               	movwf	_an_sun+1
  1118  0E54  0850               	movf	?___fldiv,w
  1119  0E55  00EA               	movwf	_an_sun
  1120  0E56                     l3273:
  1121                           
  1122                           ;Slave_1_main.c: 54:         LDR = an_sun;
  1123  0E56  086D               	movf	_an_sun+3,w
  1124  0E57  00A3               	movwf	___fltol@f1+3
  1125  0E58  086C               	movf	_an_sun+2,w
  1126  0E59  00A2               	movwf	___fltol@f1+2
  1127  0E5A  086B               	movf	_an_sun+1,w
  1128  0E5B  00A1               	movwf	___fltol@f1+1
  1129  0E5C  086A               	movf	_an_sun,w
  1130  0E5D  00A0               	movwf	___fltol@f1
  1131  0E5E  120A  158A  247A  120A  158A  	fcall	___fltol
  1132  0E63  1283               	bcf	3,5	;RP0=0, select bank0
  1133  0E64  1303               	bcf	3,6	;RP1=0, select bank0
  1134  0E65  0823               	movf	?___fltol+3,w
  1135  0E66  00F9               	movwf	_LDR+3
  1136  0E67  0822               	movf	?___fltol+2,w
  1137  0E68  00F8               	movwf	_LDR+2
  1138  0E69  0821               	movf	?___fltol+1,w
  1139  0E6A  00F7               	movwf	_LDR+1
  1140  0E6B  0820               	movf	?___fltol,w
  1141  0E6C  00F6               	movwf	_LDR
  1142  0E6D                     l3275:
  1143                           
  1144                           ;Slave_1_main.c: 55:         sprintf(buffer,"LCD: %6u",LDR);
  1145  0E6D  301C               	movlw	(low ((STR_2-__stringbase)| (0+32768)))& (0+255)
  1146  0E6E  1683               	bsf	3,5	;RP0=1, select bank1
  1147  0E6F  1303               	bcf	3,6	;RP1=0, select bank1
  1148  0E70  00B0               	movwf	??_main^(0+128)
  1149  0E71  0830               	movf	??_main^(0+128),w
  1150  0E72  1283               	bcf	3,5	;RP0=0, select bank0
  1151  0E73  1303               	bcf	3,6	;RP1=0, select bank0
  1152  0E74  00AC               	movwf	sprintf@f
  1153  0E75  0879               	movf	_LDR+3,w
  1154  0E76  00B0               	movwf	?_sprintf+4
  1155  0E77  0878               	movf	_LDR+2,w
  1156  0E78  00AF               	movwf	?_sprintf+3
  1157  0E79  0877               	movf	_LDR+1,w
  1158  0E7A  00AE               	movwf	?_sprintf+2
  1159  0E7B  0876               	movf	_LDR,w
  1160  0E7C  00AD               	movwf	?_sprintf+1
  1161  0E7D  30A0               	movlw	(low (_buffer| 0))& (0+255)
  1162  0E7E  120A  158A  26A5  120A  158A  	fcall	_sprintf
  1163                           
  1164                           ;Slave_1_main.c: 56:         Lcd_Set_Cursor(2,1);
  1165  0E83  1283               	bcf	3,5	;RP0=0, select bank0
  1166  0E84  1303               	bcf	3,6	;RP1=0, select bank0
  1167  0E85  01A2               	clrf	Lcd_Set_Cursor@b
  1168  0E86  0AA2               	incf	Lcd_Set_Cursor@b,f
  1169  0E87  3002               	movlw	2
  1170  0E88  120A  158A  2422  120A  158A  	fcall	_Lcd_Set_Cursor
  1171                           
  1172                           ;Slave_1_main.c: 57:         Lcd_Write_Char(buffer);
  1173  0E8D  30A0               	movlw	(low _buffer)& (0+255)
  1174  0E8E  120A  158A  223B  120A  158A  	fcall	_Lcd_Write_Char
  1175  0E93                     l3277:
  1176                           
  1177                           ;Slave_1_main.c: 58:         _delay((unsigned long)((500)*(8000000/4000.0)));
  1178  0E93  3006               	movlw	6
  1179  0E94  1683               	bsf	3,5	;RP0=1, select bank1
  1180  0E95  1303               	bcf	3,6	;RP1=0, select bank1
  1181  0E96  00B2               	movwf	(??_main^(0+128)+2)
  1182  0E97  3013               	movlw	19
  1183  0E98  00B1               	movwf	(??_main^(0+128)+1)
  1184  0E99  30AD               	movlw	173
  1185  0E9A  00B0               	movwf	??_main^(0+128)
  1186  0E9B                     u4897:
  1187  0E9B  0BB0               	decfsz	??_main^(0+128),f
  1188  0E9C  2E9B               	goto	u4897
  1189  0E9D  0BB1               	decfsz	(??_main^(0+128)+1),f
  1190  0E9E  2E9B               	goto	u4897
  1191  0E9F  0BB2               	decfsz	(??_main^(0+128)+2),f
  1192  0EA0  2E9B               	goto	u4897
  1193  0EA1  2DD4               	goto	l3271
  1194  0EA2  120A  118A  280C   	ljmp	start
  1195  0EA5                     __end_of_main:
  1196                           
  1197                           	psect	text1
  1198  0EA5                     __ptext1:	
  1199 ;; *************** function _sprintf *****************
  1200 ;; Defined at:
  1201 ;;		line 505 in file "C:\Program Files\Microchip\xc8\v2.32\pic\sources\c90\common\doprnt.c"
  1202 ;; Parameters:    Size  Location     Type
  1203 ;;  sp              1    wreg     PTR unsigned char 
  1204 ;;		 -> buffer(16), 
  1205 ;;  f               1   12[BANK0 ] PTR const unsigned char 
  1206 ;;		 -> STR_2(9), 
  1207 ;; Auto vars:     Size  Location     Type
  1208 ;;  sp              1   25[BANK0 ] PTR unsigned char 
  1209 ;;		 -> buffer(16), 
  1210 ;;  tmpval          4    0        struct .
  1211 ;;  width           2   26[BANK0 ] int 
  1212 ;;  val             2   22[BANK0 ] unsigned int 
  1213 ;;  cp              2    0        PTR const unsigned char 
  1214 ;;  len             2    0        unsigned int 
  1215 ;;  c               1   28[BANK0 ] unsigned char 
  1216 ;;  prec            1   24[BANK0 ] char 
  1217 ;;  ap              1   21[BANK0 ] PTR void [1]
  1218 ;;		 -> ?_sprintf(2), 
  1219 ;;  flag            1   20[BANK0 ] unsigned char 
  1220 ;; Return value:  Size  Location     Type
  1221 ;;                  2   12[BANK0 ] int 
  1222 ;; Registers used:
  1223 ;;		wreg, fsr0l, fsr0h, status,2, status,0, btemp+1, pclath, cstack
  1224 ;; Tracked objects:
  1225 ;;		On entry : 0/0
  1226 ;;		On exit  : 0/0
  1227 ;;		Unchanged: 0/0
  1228 ;; Data sizes:     COMMON   BANK0   BANK1   BANK3   BANK2
  1229 ;;      Params:         0       5       0       0       0
  1230 ;;      Locals:         0       9       0       0       0
  1231 ;;      Temps:          0       3       0       0       0
  1232 ;;      Totals:         0      17       0       0       0
  1233 ;;Total ram usage:       17 bytes
  1234 ;; Hardware stack levels used: 1
  1235 ;; Hardware stack levels required when called: 2
  1236 ;; This function calls:
  1237 ;;		___lwdiv
  1238 ;;		___lwmod
  1239 ;;		___wmul
  1240 ;;		_isdigit
  1241 ;; This function is called by:
  1242 ;;		_main
  1243 ;; This function uses a non-reentrant model
  1244 ;;
  1245                           
  1246                           
  1247                           ;psect for function _sprintf
  1248  0EA5                     _sprintf:
  1249                           
  1250                           ;incstack = 0
  1251                           ; Regs used in _sprintf: [wreg-fsr0h+status,2+status,0+btemp+1+pclath+cstack]
  1252                           ;sprintf@sp stored from wreg
  1253  0EA5  1283               	bcf	3,5	;RP0=0, select bank0
  1254  0EA6  1303               	bcf	3,6	;RP1=0, select bank0
  1255  0EA7  00B9               	movwf	sprintf@sp
  1256  0EA8                     l2957:
  1257                           
  1258                           ;C:\Program Files\Microchip\xc8\v2.32\pic\sources\c90\common\doprnt.c: 505: sprintf(char
      +                           * sp, const char * f, ...);C:\Program Files\Microchip\xc8\v2.32\pic\sources\c90\common\
      +                          doprnt.c: 506: {;C:\Program Files\Microchip\xc8\v2.32\pic\sources\c90\common\doprnt.c: 5
      +                          07:  va_list ap;;C:\Program Files\Microchip\xc8\v2.32\pic\sources\c90\common\doprnt.c: 5
      +                          12:  char c;;C:\Program Files\Microchip\xc8\v2.32\pic\sources\c90\common\doprnt.c: 514: 
      +                           int width;;C:\Program Files\Microchip\xc8\v2.32\pic\sources\c90\common\doprnt.c: 521:  
      +                          signed char prec;
  1259  0EA8  302D               	movlw	(low ((?_sprintf| 0+1)))& (0+255)
  1260  0EA9  00B1               	movwf	??_sprintf
  1261  0EAA  0831               	movf	??_sprintf,w
  1262  0EAB  00B5               	movwf	sprintf@ap
  1263                           
  1264                           ;C:\Program Files\Microchip\xc8\v2.32\pic\sources\c90\common\doprnt.c: 553:  while((c = 
      +                          *f++)) {
  1265  0EAC  2FE9               	goto	l3025
  1266  0EAD                     l2959:
  1267                           
  1268                           ;C:\Program Files\Microchip\xc8\v2.32\pic\sources\c90\common\doprnt.c: 555:   if(c != '%
      +                          ')
  1269  0EAD  3025               	movlw	37
  1270  0EAE  063C               	xorwf	sprintf@c,w
  1271  0EAF  1903               	btfsc	3,2
  1272  0EB0  2EB2               	goto	u4181
  1273  0EB1  2EB3               	goto	u4180
  1274  0EB2                     u4181:
  1275  0EB2  2EBF               	goto	l2965
  1276  0EB3                     u4180:
  1277  0EB3                     l2961:
  1278                           
  1279                           ;C:\Program Files\Microchip\xc8\v2.32\pic\sources\c90\common\doprnt.c: 557:   {;C:\Progr
      +                          am Files\Microchip\xc8\v2.32\pic\sources\c90\common\doprnt.c: 558:    ((*sp++ = (c)));
  1280  0EB3  083C               	movf	sprintf@c,w
  1281  0EB4  00B1               	movwf	??_sprintf
  1282  0EB5  0839               	movf	sprintf@sp,w
  1283  0EB6  0084               	movwf	4
  1284  0EB7  0831               	movf	??_sprintf,w
  1285  0EB8  1383               	bcf	3,7	;select IRP bank0
  1286  0EB9  0080               	movwf	0
  1287  0EBA                     l2963:
  1288  0EBA  3001               	movlw	1
  1289  0EBB  00B1               	movwf	??_sprintf
  1290  0EBC  0831               	movf	??_sprintf,w
  1291  0EBD  07B9               	addwf	sprintf@sp,f
  1292                           
  1293                           ;C:\Program Files\Microchip\xc8\v2.32\pic\sources\c90\common\doprnt.c: 559:    continue;
  1294  0EBE  2FE9               	goto	l3025
  1295  0EBF                     l2965:
  1296                           
  1297                           ;C:\Program Files\Microchip\xc8\v2.32\pic\sources\c90\common\doprnt.c: 563:   width = 0;
  1298  0EBF  01BA               	clrf	sprintf@width
  1299  0EC0  01BB               	clrf	sprintf@width+1
  1300                           
  1301                           ;C:\Program Files\Microchip\xc8\v2.32\pic\sources\c90\common\doprnt.c: 565:   flag = 0;
  1302  0EC1  01B4               	clrf	sprintf@flag
  1303  0EC2                     l2967:
  1304                           
  1305                           ;C:\Program Files\Microchip\xc8\v2.32\pic\sources\c90\common\doprnt.c: 614:   if(isdigit
      +                          ((unsigned)*f)) {
  1306  0EC2  082C               	movf	sprintf@f,w
  1307  0EC3  0084               	movwf	4
  1308  0EC4  120A  158A  2000  120A  158A  	fcall	stringdir
  1309  0EC9  120A  118A  27EE  120A  158A  	fcall	_isdigit
  1310  0ECE  1C03               	btfss	3,0
  1311  0ECF  2ED1               	goto	u4191
  1312  0ED0  2ED2               	goto	u4190
  1313  0ED1                     u4191:
  1314  0ED1  2F18               	goto	l2983
  1315  0ED2                     u4190:
  1316  0ED2                     l2969:
  1317                           
  1318                           ;C:\Program Files\Microchip\xc8\v2.32\pic\sources\c90\common\doprnt.c: 615:    width = 0
      +                          ;
  1319  0ED2  1283               	bcf	3,5	;RP0=0, select bank0
  1320  0ED3  1303               	bcf	3,6	;RP1=0, select bank0
  1321  0ED4  01BA               	clrf	sprintf@width
  1322  0ED5  01BB               	clrf	sprintf@width+1
  1323  0ED6                     l2971:
  1324                           
  1325                           ;C:\Program Files\Microchip\xc8\v2.32\pic\sources\c90\common\doprnt.c: 617:     width *=
      +                           10;
  1326  0ED6  300A               	movlw	10
  1327  0ED7  1283               	bcf	3,5	;RP0=0, select bank0
  1328  0ED8  1303               	bcf	3,6	;RP1=0, select bank0
  1329  0ED9  00A0               	movwf	___wmul@multiplier
  1330  0EDA  3000               	movlw	0
  1331  0EDB  00A1               	movwf	___wmul@multiplier+1
  1332  0EDC  083B               	movf	sprintf@width+1,w
  1333  0EDD  00A3               	movwf	___wmul@multiplicand+1
  1334  0EDE  083A               	movf	sprintf@width,w
  1335  0EDF  00A2               	movwf	___wmul@multiplicand
  1336  0EE0  120A  158A  227D  120A  158A  	fcall	___wmul
  1337  0EE5  1283               	bcf	3,5	;RP0=0, select bank0
  1338  0EE6  1303               	bcf	3,6	;RP1=0, select bank0
  1339  0EE7  0821               	movf	?___wmul+1,w
  1340  0EE8  00BB               	movwf	sprintf@width+1
  1341  0EE9  0820               	movf	?___wmul,w
  1342  0EEA  00BA               	movwf	sprintf@width
  1343  0EEB                     l2973:
  1344                           
  1345                           ;C:\Program Files\Microchip\xc8\v2.32\pic\sources\c90\common\doprnt.c: 618:        width
      +                           += *f++ - '0';
  1346  0EEB  082C               	movf	sprintf@f,w
  1347  0EEC  0084               	movwf	4
  1348  0EED  120A  158A  2000  120A  158A  	fcall	stringdir
  1349  0EF2  3ED0               	addlw	208
  1350  0EF3  00B1               	movwf	??_sprintf
  1351  0EF4  30FF               	movlw	255
  1352  0EF5  1803               	skipnc
  1353  0EF6  3000               	movlw	0
  1354  0EF7  00B2               	movwf	??_sprintf+1
  1355  0EF8  0831               	movf	??_sprintf,w
  1356  0EF9  07BA               	addwf	sprintf@width,f
  1357  0EFA  1803               	skipnc
  1358  0EFB  0ABB               	incf	sprintf@width+1,f
  1359  0EFC  0832               	movf	??_sprintf+1,w
  1360  0EFD  07BB               	addwf	sprintf@width+1,f
  1361  0EFE                     l2975:
  1362  0EFE  3001               	movlw	1
  1363  0EFF  00B1               	movwf	??_sprintf
  1364  0F00  0831               	movf	??_sprintf,w
  1365  0F01  07AC               	addwf	sprintf@f,f
  1366  0F02                     l2977:
  1367                           
  1368                           ;C:\Program Files\Microchip\xc8\v2.32\pic\sources\c90\common\doprnt.c: 619:    } while(i
      +                          sdigit((unsigned)*f));
  1369  0F02  082C               	movf	sprintf@f,w
  1370  0F03  0084               	movwf	4
  1371  0F04  120A  158A  2000  120A  158A  	fcall	stringdir
  1372  0F09  120A  118A  27EE  120A  158A  	fcall	_isdigit
  1373  0F0E  1803               	btfsc	3,0
  1374  0F0F  2F11               	goto	u4201
  1375  0F10  2F12               	goto	u4200
  1376  0F11                     u4201:
  1377  0F11  2ED6               	goto	l2971
  1378  0F12                     u4200:
  1379  0F12  2F18               	goto	l2983
  1380  0F13                     l2979:
  1381                           
  1382                           ;C:\Program Files\Microchip\xc8\v2.32\pic\sources\c90\common\doprnt.c: 844:    flag |= 0
      +                          xC0;
  1383  0F13  30C0               	movlw	192
  1384  0F14  00B1               	movwf	??_sprintf
  1385  0F15  0831               	movf	??_sprintf,w
  1386  0F16  04B4               	iorwf	sprintf@flag,f
  1387                           
  1388                           ;C:\Program Files\Microchip\xc8\v2.32\pic\sources\c90\common\doprnt.c: 845:    break;
  1389  0F17  2F34               	goto	l2985
  1390  0F18                     l2983:
  1391  0F18  3001               	movlw	1
  1392  0F19  1283               	bcf	3,5	;RP0=0, select bank0
  1393  0F1A  1303               	bcf	3,6	;RP1=0, select bank0
  1394  0F1B  07AC               	addwf	sprintf@f,f
  1395  0F1C  30FF               	movlw	-1
  1396  0F1D  072C               	addwf	sprintf@f,w
  1397  0F1E  0084               	movwf	4
  1398  0F1F  120A  158A  2000  120A  158A  	fcall	stringdir
  1399  0F24  00BC               	movwf	sprintf@c
  1400  0F25  00B1               	movwf	??_sprintf
  1401  0F26  01B2               	clrf	??_sprintf+1
  1402                           
  1403                           ; Switch on 2 bytes has been partitioned into a top level switch of size 1, and 1 sub-sw
      +                          itches
  1404                           ; Switch size 1, requested type "simple"
  1405                           ; Number of cases is 1, Range of values is 0 to 0
  1406                           ; switch strategies available:
  1407                           ; Name         Instructions Cycles
  1408                           ; simple_byte            4     3 (average)
  1409                           ; direct_byte           11     8 (fixed)
  1410                           ; jumptable            260     6 (fixed)
  1411                           ;	Chosen strategy is simple_byte
  1412  0F27  0832               	movf	??_sprintf+1,w
  1413  0F28  3A00               	xorlw	0	; case 0
  1414  0F29  1903               	skipnz
  1415  0F2A  2F2C               	goto	l3299
  1416  0F2B  2FE9               	goto	l3025
  1417  0F2C                     l3299:
  1418                           
  1419                           ; Switch size 1, requested type "simple"
  1420                           ; Number of cases is 2, Range of values is 0 to 117
  1421                           ; switch strategies available:
  1422                           ; Name         Instructions Cycles
  1423                           ; simple_byte            7     4 (average)
  1424                           ; jumptable            260     6 (fixed)
  1425                           ;	Chosen strategy is simple_byte
  1426  0F2C  0831               	movf	??_sprintf,w
  1427  0F2D  3A00               	xorlw	0	; case 0
  1428  0F2E  1903               	skipnz
  1429  0F2F  2FFB               	goto	l3027
  1430  0F30  3A75               	xorlw	117	; case 117
  1431  0F31  1903               	skipnz
  1432  0F32  2F13               	goto	l2979
  1433  0F33  2FE9               	goto	l3025
  1434  0F34                     l2985:
  1435                           
  1436                           ;C:\Program Files\Microchip\xc8\v2.32\pic\sources\c90\common\doprnt.c: 1299:   {;C:\Prog
      +                          ram Files\Microchip\xc8\v2.32\pic\sources\c90\common\doprnt.c: 1312:     val = (*(unsign
      +                          ed *)__va_arg((*(unsigned **)ap), (unsigned)0));
  1437  0F34  0835               	movf	sprintf@ap,w
  1438  0F35  0084               	movwf	4
  1439  0F36  1383               	bcf	3,7	;select IRP bank0
  1440  0F37  0800               	movf	0,w
  1441  0F38  00B6               	movwf	sprintf@val
  1442  0F39  0A84               	incf	4,f
  1443  0F3A  0800               	movf	0,w
  1444  0F3B  00B7               	movwf	sprintf@val+1
  1445  0F3C                     l2987:
  1446  0F3C  3002               	movlw	2
  1447  0F3D  00B1               	movwf	??_sprintf
  1448  0F3E  0831               	movf	??_sprintf,w
  1449  0F3F  07B5               	addwf	sprintf@ap,f
  1450  0F40                     l2989:
  1451                           
  1452                           ;C:\Program Files\Microchip\xc8\v2.32\pic\sources\c90\common\doprnt.c: 1313:   };C:\Prog
      +                          ram Files\Microchip\xc8\v2.32\pic\sources\c90\common\doprnt.c: 1331:    for(c = 1 ; c !=
      +                           sizeof dpowers/sizeof dpowers[0] ; c++)
  1453  0F40  01BC               	clrf	sprintf@c
  1454  0F41  0ABC               	incf	sprintf@c,f
  1455  0F42                     l2995:
  1456                           
  1457                           ;C:\Program Files\Microchip\xc8\v2.32\pic\sources\c90\common\doprnt.c: 1332:     if(val 
      +                          < dpowers[c])
  1458  0F42  083C               	movf	sprintf@c,w
  1459  0F43  00B1               	movwf	??_sprintf
  1460  0F44  0731               	addwf	??_sprintf,w
  1461  0F45  3E01               	addlw	low ((_dpowers-__stringbase)| (0+32768))
  1462  0F46  0084               	movwf	4
  1463  0F47  120A  158A  2000  120A  158A  	fcall	stringdir
  1464  0F4C  00B2               	movwf	??_sprintf+1
  1465  0F4D  120A  158A  2000  120A  158A  	fcall	stringdir
  1466  0F52  00B3               	movwf	??_sprintf+2
  1467  0F53  0833               	movf	??_sprintf+2,w
  1468  0F54  0237               	subwf	sprintf@val+1,w
  1469  0F55  1D03               	skipz
  1470  0F56  2F59               	goto	u4215
  1471  0F57  0832               	movf	??_sprintf+1,w
  1472  0F58  0236               	subwf	sprintf@val,w
  1473  0F59                     u4215:
  1474  0F59  1803               	skipnc
  1475  0F5A  2F5C               	goto	u4211
  1476  0F5B  2F5D               	goto	u4210
  1477  0F5C                     u4211:
  1478  0F5C  2F5E               	goto	l2999
  1479  0F5D                     u4210:
  1480  0F5D  2F68               	goto	l3001
  1481  0F5E                     l2999:
  1482  0F5E  3001               	movlw	1
  1483  0F5F  00B1               	movwf	??_sprintf
  1484  0F60  0831               	movf	??_sprintf,w
  1485  0F61  07BC               	addwf	sprintf@c,f
  1486  0F62  3005               	movlw	5
  1487  0F63  063C               	xorwf	sprintf@c,w
  1488  0F64  1D03               	btfss	3,2
  1489  0F65  2F67               	goto	u4221
  1490  0F66  2F68               	goto	u4220
  1491  0F67                     u4221:
  1492  0F67  2F42               	goto	l2995
  1493  0F68                     u4220:
  1494  0F68                     l3001:
  1495                           
  1496                           ;C:\Program Files\Microchip\xc8\v2.32\pic\sources\c90\common\doprnt.c: 1407:   if(width 
      +                          > c)
  1497  0F68  083B               	movf	sprintf@width+1,w
  1498  0F69  3A80               	xorlw	128
  1499  0F6A  3C80               	sublw	128
  1500  0F6B  1D03               	skipz
  1501  0F6C  2F6F               	goto	u4235
  1502  0F6D  083A               	movf	sprintf@width,w
  1503  0F6E  023C               	subwf	sprintf@c,w
  1504  0F6F                     u4235:
  1505  0F6F  1803               	skipnc
  1506  0F70  2F72               	goto	u4231
  1507  0F71  2F73               	goto	u4230
  1508  0F72                     u4231:
  1509  0F72  2F7F               	goto	l3005
  1510  0F73                     u4230:
  1511  0F73                     l3003:
  1512                           
  1513                           ;C:\Program Files\Microchip\xc8\v2.32\pic\sources\c90\common\doprnt.c: 1408:    width -=
      +                           c;
  1514  0F73  1283               	bcf	3,5	;RP0=0, select bank0
  1515  0F74  1303               	bcf	3,6	;RP1=0, select bank0
  1516  0F75  083C               	movf	sprintf@c,w
  1517  0F76  00B1               	movwf	??_sprintf
  1518  0F77  01B2               	clrf	??_sprintf+1
  1519  0F78  0831               	movf	??_sprintf,w
  1520  0F79  02BA               	subwf	sprintf@width,f
  1521  0F7A  0832               	movf	??_sprintf+1,w
  1522  0F7B  1C03               	skipc
  1523  0F7C  03BB               	decf	sprintf@width+1,f
  1524  0F7D  02BB               	subwf	sprintf@width+1,f
  1525  0F7E  2F83               	goto	l3007
  1526  0F7F                     l3005:
  1527                           
  1528                           ;C:\Program Files\Microchip\xc8\v2.32\pic\sources\c90\common\doprnt.c: 1410:    width = 
      +                          0;
  1529  0F7F  1283               	bcf	3,5	;RP0=0, select bank0
  1530  0F80  1303               	bcf	3,6	;RP1=0, select bank0
  1531  0F81  01BA               	clrf	sprintf@width
  1532  0F82  01BB               	clrf	sprintf@width+1
  1533  0F83                     l3007:
  1534                           
  1535                           ;C:\Program Files\Microchip\xc8\v2.32\pic\sources\c90\common\doprnt.c: 1448:   {;C:\Prog
      +                          ram Files\Microchip\xc8\v2.32\pic\sources\c90\common\doprnt.c: 1450:    if(width
  1536  0F83  083A               	movf	sprintf@width,w
  1537  0F84  043B               	iorwf	sprintf@width+1,w
  1538  0F85  1903               	btfsc	3,2
  1539  0F86  2F88               	goto	u4241
  1540  0F87  2F89               	goto	u4240
  1541  0F88                     u4241:
  1542  0F88  2FA0               	goto	l3015
  1543  0F89                     u4240:
  1544  0F89                     l3009:
  1545                           
  1546                           ;C:\Program Files\Microchip\xc8\v2.32\pic\sources\c90\common\doprnt.c: 1456:      ((*sp+
      +                          + = (' ')));
  1547  0F89  3020               	movlw	32
  1548  0F8A  00B1               	movwf	??_sprintf
  1549  0F8B  0839               	movf	sprintf@sp,w
  1550  0F8C  0084               	movwf	4
  1551  0F8D  0831               	movf	??_sprintf,w
  1552  0F8E  1383               	bcf	3,7	;select IRP bank0
  1553  0F8F  0080               	movwf	0
  1554  0F90                     l3011:
  1555  0F90  3001               	movlw	1
  1556  0F91  00B1               	movwf	??_sprintf
  1557  0F92  0831               	movf	??_sprintf,w
  1558  0F93  07B9               	addwf	sprintf@sp,f
  1559  0F94                     l3013:
  1560  0F94  30FF               	movlw	255
  1561  0F95  07BA               	addwf	sprintf@width,f
  1562  0F96  1803               	skipnc
  1563  0F97  0ABB               	incf	sprintf@width+1,f
  1564  0F98  30FF               	movlw	255
  1565  0F99  07BB               	addwf	sprintf@width+1,f
  1566  0F9A  083A               	movf	sprintf@width,w
  1567  0F9B  043B               	iorwf	sprintf@width+1,w
  1568  0F9C  1D03               	btfss	3,2
  1569  0F9D  2F9F               	goto	u4251
  1570  0F9E  2FA0               	goto	u4250
  1571  0F9F                     u4251:
  1572  0F9F  2F89               	goto	l3009
  1573  0FA0                     u4250:
  1574  0FA0                     l3015:
  1575                           
  1576                           ;C:\Program Files\Microchip\xc8\v2.32\pic\sources\c90\common\doprnt.c: 1495:   };C:\Prog
      +                          ram Files\Microchip\xc8\v2.32\pic\sources\c90\common\doprnt.c: 1498:   prec = c;
  1577  0FA0  083C               	movf	sprintf@c,w
  1578  0FA1  00B1               	movwf	??_sprintf
  1579  0FA2  0831               	movf	??_sprintf,w
  1580  0FA3  00B8               	movwf	sprintf@prec
  1581                           
  1582                           ;C:\Program Files\Microchip\xc8\v2.32\pic\sources\c90\common\doprnt.c: 1500:   while(pre
      +                          c--) {
  1583  0FA4  2FE0               	goto	l3023
  1584  0FA5                     l3017:
  1585                           
  1586                           ;C:\Program Files\Microchip\xc8\v2.32\pic\sources\c90\common\doprnt.c: 1504:    {;C:\Pro
      +                          gram Files\Microchip\xc8\v2.32\pic\sources\c90\common\doprnt.c: 1515:     c = (val / dpo
      +                          wers[(unsigned char)prec]) % 10 + '0';
  1587  0FA5  300A               	movlw	10
  1588  0FA6  00A7               	movwf	___lwmod@divisor
  1589  0FA7  3000               	movlw	0
  1590  0FA8  00A8               	movwf	___lwmod@divisor+1
  1591  0FA9  0838               	movf	sprintf@prec,w
  1592  0FAA  00B1               	movwf	??_sprintf
  1593  0FAB  0731               	addwf	??_sprintf,w
  1594  0FAC  3E01               	addlw	low ((_dpowers-__stringbase)| (0+32768))
  1595  0FAD  0084               	movwf	4
  1596  0FAE  120A  158A  2000  120A  158A  	fcall	stringdir
  1597  0FB3  00A0               	movwf	___lwdiv@divisor
  1598  0FB4  120A  158A  2000  120A  158A  	fcall	stringdir
  1599  0FB9  00A1               	movwf	___lwdiv@divisor+1
  1600  0FBA  0837               	movf	sprintf@val+1,w
  1601  0FBB  00A3               	movwf	___lwdiv@dividend+1
  1602  0FBC  0836               	movf	sprintf@val,w
  1603  0FBD  00A2               	movwf	___lwdiv@dividend
  1604  0FBE  120A  158A  2390  120A  158A  	fcall	___lwdiv
  1605  0FC3  1283               	bcf	3,5	;RP0=0, select bank0
  1606  0FC4  1303               	bcf	3,6	;RP1=0, select bank0
  1607  0FC5  0821               	movf	?___lwdiv+1,w
  1608  0FC6  00AA               	movwf	___lwmod@dividend+1
  1609  0FC7  0820               	movf	?___lwdiv,w
  1610  0FC8  00A9               	movwf	___lwmod@dividend
  1611  0FC9  120A  158A  2354  120A  158A  	fcall	___lwmod
  1612  0FCE  1283               	bcf	3,5	;RP0=0, select bank0
  1613  0FCF  1303               	bcf	3,6	;RP1=0, select bank0
  1614  0FD0  0827               	movf	?___lwmod,w
  1615  0FD1  3E30               	addlw	48
  1616  0FD2  00B2               	movwf	??_sprintf+1
  1617  0FD3  0832               	movf	??_sprintf+1,w
  1618  0FD4  00BC               	movwf	sprintf@c
  1619  0FD5                     l3019:
  1620                           
  1621                           ;C:\Program Files\Microchip\xc8\v2.32\pic\sources\c90\common\doprnt.c: 1549:    };C:\Pro
      +                          gram Files\Microchip\xc8\v2.32\pic\sources\c90\common\doprnt.c: 1550:    ((*sp++ = (c)))
      +                          ;
  1622  0FD5  083C               	movf	sprintf@c,w
  1623  0FD6  00B1               	movwf	??_sprintf
  1624  0FD7  0839               	movf	sprintf@sp,w
  1625  0FD8  0084               	movwf	4
  1626  0FD9  0831               	movf	??_sprintf,w
  1627  0FDA  1383               	bcf	3,7	;select IRP bank0
  1628  0FDB  0080               	movwf	0
  1629  0FDC                     l3021:
  1630  0FDC  3001               	movlw	1
  1631  0FDD  00B1               	movwf	??_sprintf
  1632  0FDE  0831               	movf	??_sprintf,w
  1633  0FDF  07B9               	addwf	sprintf@sp,f
  1634  0FE0                     l3023:
  1635                           
  1636                           ;C:\Program Files\Microchip\xc8\v2.32\pic\sources\c90\common\doprnt.c: 1500:   while(pre
      +                          c--) {
  1637  0FE0  30FF               	movlw	255
  1638  0FE1  00B1               	movwf	??_sprintf
  1639  0FE2  0831               	movf	??_sprintf,w
  1640  0FE3  07B8               	addwf	sprintf@prec,f
  1641  0FE4  0A38               	incf	sprintf@prec,w
  1642  0FE5  1D03               	btfss	3,2
  1643  0FE6  2FE8               	goto	u4261
  1644  0FE7  2FE9               	goto	u4260
  1645  0FE8                     u4261:
  1646  0FE8  2FA5               	goto	l3017
  1647  0FE9                     u4260:
  1648  0FE9                     l3025:
  1649                           
  1650                           ;C:\Program Files\Microchip\xc8\v2.32\pic\sources\c90\common\doprnt.c: 553:  while((c = 
      +                          *f++)) {
  1651  0FE9  3001               	movlw	1
  1652  0FEA  07AC               	addwf	sprintf@f,f
  1653  0FEB  30FF               	movlw	-1
  1654  0FEC  072C               	addwf	sprintf@f,w
  1655  0FED  0084               	movwf	4
  1656  0FEE  120A  158A  2000  120A  158A  	fcall	stringdir
  1657  0FF3  00B1               	movwf	??_sprintf
  1658  0FF4  0831               	movf	??_sprintf,w
  1659  0FF5  00BC               	movwf	sprintf@c
  1660  0FF6  083C               	movf	sprintf@c,w
  1661  0FF7  1D03               	btfss	3,2
  1662  0FF8  2FFA               	goto	u4271
  1663  0FF9  2FFB               	goto	u4270
  1664  0FFA                     u4271:
  1665  0FFA  2EAD               	goto	l2959
  1666  0FFB                     u4270:
  1667  0FFB                     l3027:
  1668                           
  1669                           ;C:\Program Files\Microchip\xc8\v2.32\pic\sources\c90\common\doprnt.c: 1564:  *sp = 0;
  1670  0FFB  0839               	movf	sprintf@sp,w
  1671  0FFC  0084               	movwf	4
  1672  0FFD  1383               	bcf	3,7	;select IRP bank0
  1673  0FFE  0180               	clrf	0
  1674  0FFF                     l292:
  1675  0FFF  0008               	return
  1676  1000                     __end_of_sprintf:
  1677                           
  1678                           	psect	text2
  1679  07EE                     __ptext2:	
  1680 ;; *************** function _isdigit *****************
  1681 ;; Defined at:
  1682 ;;		line 8 in file "C:\Program Files\Microchip\xc8\v2.32\pic\sources\c90\common\isdigit.c"
  1683 ;; Parameters:    Size  Location     Type
  1684 ;;  c               1    wreg     unsigned char 
  1685 ;; Auto vars:     Size  Location     Type
  1686 ;;  c               1    5[COMMON] unsigned char 
  1687 ;; Return value:  Size  Location     Type
  1688 ;;		None               void
  1689 ;; Registers used:
  1690 ;;		wreg, status,2, status,0
  1691 ;; Tracked objects:
  1692 ;;		On entry : 0/0
  1693 ;;		On exit  : 0/0
  1694 ;;		Unchanged: 0/0
  1695 ;; Data sizes:     COMMON   BANK0   BANK1   BANK3   BANK2
  1696 ;;      Params:         0       0       0       0       0
  1697 ;;      Locals:         2       0       0       0       0
  1698 ;;      Temps:          0       0       0       0       0
  1699 ;;      Totals:         2       0       0       0       0
  1700 ;;Total ram usage:        2 bytes
  1701 ;; Hardware stack levels used: 1
  1702 ;; Hardware stack levels required when called: 1
  1703 ;; This function calls:
  1704 ;;		Nothing
  1705 ;; This function is called by:
  1706 ;;		_sprintf
  1707 ;; This function uses a non-reentrant model
  1708 ;;
  1709                           
  1710                           
  1711                           ;psect for function _isdigit
  1712  07EE                     _isdigit:
  1713                           
  1714                           ;incstack = 0
  1715                           ; Regs used in _isdigit: [wreg+status,2+status,0]
  1716                           ;isdigit@c stored from wreg
  1717  07EE  00F5               	movwf	isdigit@c
  1718  07EF                     l1779:
  1719  07EF  01F4               	clrf	_isdigit$797
  1720  07F0                     l1781:
  1721  07F0  303A               	movlw	58
  1722  07F1  0275               	subwf	isdigit@c,w
  1723  07F2  1803               	skipnc
  1724  07F3  2FF5               	goto	u1791
  1725  07F4  2FF6               	goto	u1790
  1726  07F5                     u1791:
  1727  07F5  2FFE               	goto	l1787
  1728  07F6                     u1790:
  1729  07F6                     l1783:
  1730  07F6  3030               	movlw	48
  1731  07F7  0275               	subwf	isdigit@c,w
  1732  07F8  1C03               	skipc
  1733  07F9  2FFB               	goto	u1801
  1734  07FA  2FFC               	goto	u1800
  1735  07FB                     u1801:
  1736  07FB  2FFE               	goto	l1787
  1737  07FC                     u1800:
  1738  07FC                     l1785:
  1739  07FC  01F4               	clrf	_isdigit$797
  1740  07FD  0AF4               	incf	_isdigit$797,f
  1741  07FE                     l1787:
  1742  07FE  0C74               	rrf	_isdigit$797,w
  1743  07FF                     l749:
  1744  07FF  0008               	return
  1745  0800                     __end_of_isdigit:
  1746                           
  1747                           	psect	text3
  1748  0A7D                     __ptext3:	
  1749 ;; *************** function ___wmul *****************
  1750 ;; Defined at:
  1751 ;;		line 15 in file "C:\Program Files\Microchip\xc8\v2.32\pic\sources\c90\common\Umul16.c"
  1752 ;; Parameters:    Size  Location     Type
  1753 ;;  multiplier      2    0[BANK0 ] unsigned int 
  1754 ;;  multiplicand    2    2[BANK0 ] unsigned int 
  1755 ;; Auto vars:     Size  Location     Type
  1756 ;;  product         2    4[COMMON] unsigned int 
  1757 ;; Return value:  Size  Location     Type
  1758 ;;                  2    0[BANK0 ] unsigned int 
  1759 ;; Registers used:
  1760 ;;		wreg, status,2, status,0
  1761 ;; Tracked objects:
  1762 ;;		On entry : 0/0
  1763 ;;		On exit  : 0/0
  1764 ;;		Unchanged: 0/0
  1765 ;; Data sizes:     COMMON   BANK0   BANK1   BANK3   BANK2
  1766 ;;      Params:         0       4       0       0       0
  1767 ;;      Locals:         2       0       0       0       0
  1768 ;;      Temps:          0       0       0       0       0
  1769 ;;      Totals:         2       4       0       0       0
  1770 ;;Total ram usage:        6 bytes
  1771 ;; Hardware stack levels used: 1
  1772 ;; Hardware stack levels required when called: 1
  1773 ;; This function calls:
  1774 ;;		Nothing
  1775 ;; This function is called by:
  1776 ;;		_sprintf
  1777 ;; This function uses a non-reentrant model
  1778 ;;
  1779                           
  1780                           
  1781                           ;psect for function ___wmul
  1782  0A7D                     ___wmul:
  1783  0A7D                     l2669:	
  1784                           ;incstack = 0
  1785                           ; Regs used in ___wmul: [wreg+status,2+status,0]
  1786                           
  1787  0A7D  01F4               	clrf	___wmul@product
  1788  0A7E  01F5               	clrf	___wmul@product+1
  1789  0A7F                     l2671:
  1790  0A7F  1283               	bcf	3,5	;RP0=0, select bank0
  1791  0A80  1303               	bcf	3,6	;RP1=0, select bank0
  1792  0A81  1C20               	btfss	___wmul@multiplier,0
  1793  0A82  2A84               	goto	u3531
  1794  0A83  2A85               	goto	u3530
  1795  0A84                     u3531:
  1796  0A84  2A8B               	goto	l296
  1797  0A85                     u3530:
  1798  0A85                     l2673:
  1799  0A85  0822               	movf	___wmul@multiplicand,w
  1800  0A86  07F4               	addwf	___wmul@product,f
  1801  0A87  1803               	skipnc
  1802  0A88  0AF5               	incf	___wmul@product+1,f
  1803  0A89  0823               	movf	___wmul@multiplicand+1,w
  1804  0A8A  07F5               	addwf	___wmul@product+1,f
  1805  0A8B                     l296:
  1806  0A8B  3001               	movlw	1
  1807  0A8C                     u3545:
  1808  0A8C  1003               	clrc
  1809  0A8D  0DA2               	rlf	___wmul@multiplicand,f
  1810  0A8E  0DA3               	rlf	___wmul@multiplicand+1,f
  1811  0A8F  3EFF               	addlw	-1
  1812  0A90  1D03               	skipz
  1813  0A91  2A8C               	goto	u3545
  1814  0A92                     l2675:
  1815  0A92  3001               	movlw	1
  1816  0A93                     u3555:
  1817  0A93  1003               	clrc
  1818  0A94  0CA1               	rrf	___wmul@multiplier+1,f
  1819  0A95  0CA0               	rrf	___wmul@multiplier,f
  1820  0A96  3EFF               	addlw	-1
  1821  0A97  1D03               	skipz
  1822  0A98  2A93               	goto	u3555
  1823  0A99                     l2677:
  1824  0A99  0820               	movf	___wmul@multiplier,w
  1825  0A9A  0421               	iorwf	___wmul@multiplier+1,w
  1826  0A9B  1D03               	btfss	3,2
  1827  0A9C  2A9E               	goto	u3561
  1828  0A9D  2A9F               	goto	u3560
  1829  0A9E                     u3561:
  1830  0A9E  2A7F               	goto	l2671
  1831  0A9F                     u3560:
  1832  0A9F                     l2679:
  1833  0A9F  0875               	movf	___wmul@product+1,w
  1834  0AA0  00A1               	movwf	?___wmul+1
  1835  0AA1  0874               	movf	___wmul@product,w
  1836  0AA2  00A0               	movwf	?___wmul
  1837  0AA3                     l298:
  1838  0AA3  0008               	return
  1839  0AA4                     __end_of___wmul:
  1840                           
  1841                           	psect	text4
  1842  0B54                     __ptext4:	
  1843 ;; *************** function ___lwmod *****************
  1844 ;; Defined at:
  1845 ;;		line 5 in file "C:\Program Files\Microchip\xc8\v2.32\pic\sources\c90\common\lwmod.c"
  1846 ;; Parameters:    Size  Location     Type
  1847 ;;  divisor         2    7[BANK0 ] unsigned int 
  1848 ;;  dividend        2    9[BANK0 ] unsigned int 
  1849 ;; Auto vars:     Size  Location     Type
  1850 ;;  counter         1   11[BANK0 ] unsigned char 
  1851 ;; Return value:  Size  Location     Type
  1852 ;;                  2    7[BANK0 ] unsigned int 
  1853 ;; Registers used:
  1854 ;;		wreg, status,2, status,0
  1855 ;; Tracked objects:
  1856 ;;		On entry : 0/0
  1857 ;;		On exit  : 0/0
  1858 ;;		Unchanged: 0/0
  1859 ;; Data sizes:     COMMON   BANK0   BANK1   BANK3   BANK2
  1860 ;;      Params:         0       4       0       0       0
  1861 ;;      Locals:         0       1       0       0       0
  1862 ;;      Temps:          1       0       0       0       0
  1863 ;;      Totals:         1       5       0       0       0
  1864 ;;Total ram usage:        6 bytes
  1865 ;; Hardware stack levels used: 1
  1866 ;; Hardware stack levels required when called: 1
  1867 ;; This function calls:
  1868 ;;		Nothing
  1869 ;; This function is called by:
  1870 ;;		_sprintf
  1871 ;; This function uses a non-reentrant model
  1872 ;;
  1873                           
  1874                           
  1875                           ;psect for function ___lwmod
  1876  0B54                     ___lwmod:
  1877  0B54                     l1831:	
  1878                           ;incstack = 0
  1879                           ; Regs used in ___lwmod: [wreg+status,2+status,0]
  1880                           
  1881  0B54  1283               	bcf	3,5	;RP0=0, select bank0
  1882  0B55  1303               	bcf	3,6	;RP1=0, select bank0
  1883  0B56  0827               	movf	___lwmod@divisor,w
  1884  0B57  0428               	iorwf	___lwmod@divisor+1,w
  1885  0B58  1903               	btfsc	3,2
  1886  0B59  2B5B               	goto	u1921
  1887  0B5A  2B5C               	goto	u1920
  1888  0B5B                     u1921:
  1889  0B5B  2B8B               	goto	l1849
  1890  0B5C                     u1920:
  1891  0B5C                     l1833:
  1892  0B5C  01AB               	clrf	___lwmod@counter
  1893  0B5D  0AAB               	incf	___lwmod@counter,f
  1894  0B5E  2B6A               	goto	l1839
  1895  0B5F                     l1835:
  1896  0B5F  3001               	movlw	1
  1897  0B60                     u1935:
  1898  0B60  1003               	clrc
  1899  0B61  0DA7               	rlf	___lwmod@divisor,f
  1900  0B62  0DA8               	rlf	___lwmod@divisor+1,f
  1901  0B63  3EFF               	addlw	-1
  1902  0B64  1D03               	skipz
  1903  0B65  2B60               	goto	u1935
  1904  0B66                     l1837:
  1905  0B66  3001               	movlw	1
  1906  0B67  00F5               	movwf	??___lwmod
  1907  0B68  0875               	movf	??___lwmod,w
  1908  0B69  07AB               	addwf	___lwmod@counter,f
  1909  0B6A                     l1839:
  1910  0B6A  1FA8               	btfss	___lwmod@divisor+1,7
  1911  0B6B  2B6D               	goto	u1941
  1912  0B6C  2B6E               	goto	u1940
  1913  0B6D                     u1941:
  1914  0B6D  2B5F               	goto	l1835
  1915  0B6E                     u1940:
  1916  0B6E                     l1841:
  1917  0B6E  0828               	movf	___lwmod@divisor+1,w
  1918  0B6F  022A               	subwf	___lwmod@dividend+1,w
  1919  0B70  1D03               	skipz
  1920  0B71  2B74               	goto	u1955
  1921  0B72  0827               	movf	___lwmod@divisor,w
  1922  0B73  0229               	subwf	___lwmod@dividend,w
  1923  0B74                     u1955:
  1924  0B74  1C03               	skipc
  1925  0B75  2B77               	goto	u1951
  1926  0B76  2B78               	goto	u1950
  1927  0B77                     u1951:
  1928  0B77  2B7E               	goto	l1845
  1929  0B78                     u1950:
  1930  0B78                     l1843:
  1931  0B78  0827               	movf	___lwmod@divisor,w
  1932  0B79  02A9               	subwf	___lwmod@dividend,f
  1933  0B7A  0828               	movf	___lwmod@divisor+1,w
  1934  0B7B  1C03               	skipc
  1935  0B7C  03AA               	decf	___lwmod@dividend+1,f
  1936  0B7D  02AA               	subwf	___lwmod@dividend+1,f
  1937  0B7E                     l1845:
  1938  0B7E  3001               	movlw	1
  1939  0B7F                     u1965:
  1940  0B7F  1003               	clrc
  1941  0B80  0CA8               	rrf	___lwmod@divisor+1,f
  1942  0B81  0CA7               	rrf	___lwmod@divisor,f
  1943  0B82  3EFF               	addlw	-1
  1944  0B83  1D03               	skipz
  1945  0B84  2B7F               	goto	u1965
  1946  0B85                     l1847:
  1947  0B85  3001               	movlw	1
  1948  0B86  02AB               	subwf	___lwmod@counter,f
  1949  0B87  1D03               	btfss	3,2
  1950  0B88  2B8A               	goto	u1971
  1951  0B89  2B8B               	goto	u1970
  1952  0B8A                     u1971:
  1953  0B8A  2B6E               	goto	l1841
  1954  0B8B                     u1970:
  1955  0B8B                     l1849:
  1956  0B8B  082A               	movf	___lwmod@dividend+1,w
  1957  0B8C  00A8               	movwf	?___lwmod+1
  1958  0B8D  0829               	movf	___lwmod@dividend,w
  1959  0B8E  00A7               	movwf	?___lwmod
  1960  0B8F                     l578:
  1961  0B8F  0008               	return
  1962  0B90                     __end_of___lwmod:
  1963                           
  1964                           	psect	text5
  1965  0B90                     __ptext5:	
  1966 ;; *************** function ___lwdiv *****************
  1967 ;; Defined at:
  1968 ;;		line 5 in file "C:\Program Files\Microchip\xc8\v2.32\pic\sources\c90\common\lwdiv.c"
  1969 ;; Parameters:    Size  Location     Type
  1970 ;;  divisor         2    0[BANK0 ] unsigned int 
  1971 ;;  dividend        2    2[BANK0 ] unsigned int 
  1972 ;; Auto vars:     Size  Location     Type
  1973 ;;  quotient        2    5[BANK0 ] unsigned int 
  1974 ;;  counter         1    4[BANK0 ] unsigned char 
  1975 ;; Return value:  Size  Location     Type
  1976 ;;                  2    0[BANK0 ] unsigned int 
  1977 ;; Registers used:
  1978 ;;		wreg, status,2, status,0
  1979 ;; Tracked objects:
  1980 ;;		On entry : 0/0
  1981 ;;		On exit  : 0/0
  1982 ;;		Unchanged: 0/0
  1983 ;; Data sizes:     COMMON   BANK0   BANK1   BANK3   BANK2
  1984 ;;      Params:         0       4       0       0       0
  1985 ;;      Locals:         0       3       0       0       0
  1986 ;;      Temps:          1       0       0       0       0
  1987 ;;      Totals:         1       7       0       0       0
  1988 ;;Total ram usage:        8 bytes
  1989 ;; Hardware stack levels used: 1
  1990 ;; Hardware stack levels required when called: 1
  1991 ;; This function calls:
  1992 ;;		Nothing
  1993 ;; This function is called by:
  1994 ;;		_sprintf
  1995 ;; This function uses a non-reentrant model
  1996 ;;
  1997                           
  1998                           
  1999                           ;psect for function ___lwdiv
  2000  0B90                     ___lwdiv:
  2001  0B90                     l2683:	
  2002                           ;incstack = 0
  2003                           ; Regs used in ___lwdiv: [wreg+status,2+status,0]
  2004                           
  2005  0B90  1283               	bcf	3,5	;RP0=0, select bank0
  2006  0B91  1303               	bcf	3,6	;RP1=0, select bank0
  2007  0B92  01A5               	clrf	___lwdiv@quotient
  2008  0B93  01A6               	clrf	___lwdiv@quotient+1
  2009  0B94                     l2685:
  2010  0B94  0820               	movf	___lwdiv@divisor,w
  2011  0B95  0421               	iorwf	___lwdiv@divisor+1,w
  2012  0B96  1903               	btfsc	3,2
  2013  0B97  2B99               	goto	u3571
  2014  0B98  2B9A               	goto	u3570
  2015  0B99                     u3571:
  2016  0B99  2BD1               	goto	l2705
  2017  0B9A                     u3570:
  2018  0B9A                     l2687:
  2019  0B9A  01A4               	clrf	___lwdiv@counter
  2020  0B9B  0AA4               	incf	___lwdiv@counter,f
  2021  0B9C  2BA8               	goto	l2693
  2022  0B9D                     l2689:
  2023  0B9D  3001               	movlw	1
  2024  0B9E                     u3585:
  2025  0B9E  1003               	clrc
  2026  0B9F  0DA0               	rlf	___lwdiv@divisor,f
  2027  0BA0  0DA1               	rlf	___lwdiv@divisor+1,f
  2028  0BA1  3EFF               	addlw	-1
  2029  0BA2  1D03               	skipz
  2030  0BA3  2B9E               	goto	u3585
  2031  0BA4                     l2691:
  2032  0BA4  3001               	movlw	1
  2033  0BA5  00F4               	movwf	??___lwdiv
  2034  0BA6  0874               	movf	??___lwdiv,w
  2035  0BA7  07A4               	addwf	___lwdiv@counter,f
  2036  0BA8                     l2693:
  2037  0BA8  1FA1               	btfss	___lwdiv@divisor+1,7
  2038  0BA9  2BAB               	goto	u3591
  2039  0BAA  2BAC               	goto	u3590
  2040  0BAB                     u3591:
  2041  0BAB  2B9D               	goto	l2689
  2042  0BAC                     u3590:
  2043  0BAC                     l2695:
  2044  0BAC  3001               	movlw	1
  2045  0BAD                     u3605:
  2046  0BAD  1003               	clrc
  2047  0BAE  0DA5               	rlf	___lwdiv@quotient,f
  2048  0BAF  0DA6               	rlf	___lwdiv@quotient+1,f
  2049  0BB0  3EFF               	addlw	-1
  2050  0BB1  1D03               	skipz
  2051  0BB2  2BAD               	goto	u3605
  2052  0BB3  0821               	movf	___lwdiv@divisor+1,w
  2053  0BB4  0223               	subwf	___lwdiv@dividend+1,w
  2054  0BB5  1D03               	skipz
  2055  0BB6  2BB9               	goto	u3615
  2056  0BB7  0820               	movf	___lwdiv@divisor,w
  2057  0BB8  0222               	subwf	___lwdiv@dividend,w
  2058  0BB9                     u3615:
  2059  0BB9  1C03               	skipc
  2060  0BBA  2BBC               	goto	u3611
  2061  0BBB  2BBD               	goto	u3610
  2062  0BBC                     u3611:
  2063  0BBC  2BC4               	goto	l2701
  2064  0BBD                     u3610:
  2065  0BBD                     l2697:
  2066  0BBD  0820               	movf	___lwdiv@divisor,w
  2067  0BBE  02A2               	subwf	___lwdiv@dividend,f
  2068  0BBF  0821               	movf	___lwdiv@divisor+1,w
  2069  0BC0  1C03               	skipc
  2070  0BC1  03A3               	decf	___lwdiv@dividend+1,f
  2071  0BC2  02A3               	subwf	___lwdiv@dividend+1,f
  2072  0BC3                     l2699:
  2073  0BC3  1425               	bsf	___lwdiv@quotient,0
  2074  0BC4                     l2701:
  2075  0BC4  3001               	movlw	1
  2076  0BC5                     u3625:
  2077  0BC5  1003               	clrc
  2078  0BC6  0CA1               	rrf	___lwdiv@divisor+1,f
  2079  0BC7  0CA0               	rrf	___lwdiv@divisor,f
  2080  0BC8  3EFF               	addlw	-1
  2081  0BC9  1D03               	skipz
  2082  0BCA  2BC5               	goto	u3625
  2083  0BCB                     l2703:
  2084  0BCB  3001               	movlw	1
  2085  0BCC  02A4               	subwf	___lwdiv@counter,f
  2086  0BCD  1D03               	btfss	3,2
  2087  0BCE  2BD0               	goto	u3631
  2088  0BCF  2BD1               	goto	u3630
  2089  0BD0                     u3631:
  2090  0BD0  2BAC               	goto	l2695
  2091  0BD1                     u3630:
  2092  0BD1                     l2705:
  2093  0BD1  0826               	movf	___lwdiv@quotient+1,w
  2094  0BD2  00A1               	movwf	?___lwdiv+1
  2095  0BD3  0825               	movf	___lwdiv@quotient,w
  2096  0BD4  00A0               	movwf	?___lwdiv
  2097  0BD5                     l568:
  2098  0BD5  0008               	return
  2099  0BD6                     __end_of___lwdiv:
  2100                           
  2101                           	psect	text6
  2102  0B24                     __ptext6:	
  2103 ;; *************** function _initSETUP *****************
  2104 ;; Defined at:
  2105 ;;		line 73 in file "Slave_1_main.c"
  2106 ;; Parameters:    Size  Location     Type
  2107 ;;		None
  2108 ;; Auto vars:     Size  Location     Type
  2109 ;;		None
  2110 ;; Return value:  Size  Location     Type
  2111 ;;                  1    wreg      void 
  2112 ;; Registers used:
  2113 ;;		wreg, status,2, status,0
  2114 ;; Tracked objects:
  2115 ;;		On entry : 0/0
  2116 ;;		On exit  : 0/0
  2117 ;;		Unchanged: 0/0
  2118 ;; Data sizes:     COMMON   BANK0   BANK1   BANK3   BANK2
  2119 ;;      Params:         0       0       0       0       0
  2120 ;;      Locals:         0       0       0       0       0
  2121 ;;      Temps:          1       0       0       0       0
  2122 ;;      Totals:         1       0       0       0       0
  2123 ;;Total ram usage:        1 bytes
  2124 ;; Hardware stack levels used: 1
  2125 ;; Hardware stack levels required when called: 1
  2126 ;; This function calls:
  2127 ;;		Nothing
  2128 ;; This function is called by:
  2129 ;;		_main
  2130 ;; This function uses a non-reentrant model
  2131 ;;
  2132                           
  2133                           
  2134                           ;psect for function _initSETUP
  2135  0B24                     _initSETUP:
  2136  0B24                     l2101:	
  2137                           ;incstack = 0
  2138                           ; Regs used in _initSETUP: [wreg+status,2+status,0]
  2139                           
  2140                           
  2141                           ;Slave_1_main.c: 74:     TRISA = 0b00000001;
  2142  0B24  3001               	movlw	1
  2143  0B25  1683               	bsf	3,5	;RP0=1, select bank1
  2144  0B26  1303               	bcf	3,6	;RP1=0, select bank1
  2145  0B27  0085               	movwf	5	;volatile
  2146  0B28                     l2103:
  2147                           
  2148                           ;Slave_1_main.c: 75:     TRISB = 0;
  2149  0B28  0186               	clrf	6	;volatile
  2150  0B29                     l2105:
  2151                           
  2152                           ;Slave_1_main.c: 76:     TRISC = 0;
  2153  0B29  0187               	clrf	7	;volatile
  2154  0B2A                     l2107:
  2155                           
  2156                           ;Slave_1_main.c: 77:     TRISD = 0;
  2157  0B2A  0188               	clrf	8	;volatile
  2158  0B2B                     l2109:
  2159                           
  2160                           ;Slave_1_main.c: 78:     TRISE = 0;
  2161  0B2B  0189               	clrf	9	;volatile
  2162  0B2C                     l2111:
  2163                           
  2164                           ;Slave_1_main.c: 79:     PORTE = 0;
  2165  0B2C  1283               	bcf	3,5	;RP0=0, select bank0
  2166  0B2D  1303               	bcf	3,6	;RP1=0, select bank0
  2167  0B2E  0189               	clrf	9	;volatile
  2168  0B2F                     l2113:
  2169                           
  2170                           ;Slave_1_main.c: 80:     PORTA = 0;
  2171  0B2F  0185               	clrf	5	;volatile
  2172  0B30                     l2115:
  2173                           
  2174                           ;Slave_1_main.c: 81:     PORTB = 0;
  2175  0B30  0186               	clrf	6	;volatile
  2176  0B31                     l2117:
  2177                           
  2178                           ;Slave_1_main.c: 82:     PORTC = 0;
  2179  0B31  0187               	clrf	7	;volatile
  2180  0B32                     l2119:
  2181                           
  2182                           ;Slave_1_main.c: 83:     PORTD = 0;
  2183  0B32  0188               	clrf	8	;volatile
  2184  0B33                     l2121:
  2185                           
  2186                           ;Slave_1_main.c: 84:     ANSEL = 0b00000001;
  2187  0B33  3001               	movlw	1
  2188  0B34  1683               	bsf	3,5	;RP0=1, select bank3
  2189  0B35  1703               	bsf	3,6	;RP1=1, select bank3
  2190  0B36  0088               	movwf	8	;volatile
  2191                           
  2192                           ;Slave_1_main.c: 85:     ANSELH = 0;
  2193  0B37  0189               	clrf	9	;volatile
  2194  0B38                     l2123:
  2195                           
  2196                           ;Slave_1_main.c: 86:     OSCCONbits.IRCF2 = 1;
  2197  0B38  1683               	bsf	3,5	;RP0=1, select bank1
  2198  0B39  1303               	bcf	3,6	;RP1=0, select bank1
  2199  0B3A  170F               	bsf	15,6	;volatile
  2200  0B3B                     l2125:
  2201                           
  2202                           ;Slave_1_main.c: 87:     OSCCONbits.IRCF1 = 1;
  2203  0B3B  168F               	bsf	15,5	;volatile
  2204  0B3C                     l2127:
  2205                           
  2206                           ;Slave_1_main.c: 88:     OSCCONbits.IRCF0 = 1;
  2207  0B3C  160F               	bsf	15,4	;volatile
  2208  0B3D                     l2129:
  2209                           
  2210                           ;Slave_1_main.c: 89:     OSCCONbits.SCS = 1;
  2211  0B3D  140F               	bsf	15,0	;volatile
  2212  0B3E                     l2131:
  2213                           
  2214                           ;Slave_1_main.c: 91:     ADCON1bits.ADFM = 0;
  2215  0B3E  139F               	bcf	31,7	;volatile
  2216  0B3F                     l2133:
  2217                           
  2218                           ;Slave_1_main.c: 92:     ADCON1bits.VCFG0 = 0;
  2219  0B3F  121F               	bcf	31,4	;volatile
  2220  0B40                     l2135:
  2221                           
  2222                           ;Slave_1_main.c: 93:     ADCON1bits.VCFG1 = 0;
  2223  0B40  129F               	bcf	31,5	;volatile
  2224  0B41                     l2137:
  2225                           
  2226                           ;Slave_1_main.c: 94:     ADCON0bits.ADCS = 0b10;
  2227  0B41  1283               	bcf	3,5	;RP0=0, select bank0
  2228  0B42  1303               	bcf	3,6	;RP1=0, select bank0
  2229  0B43  081F               	movf	31,w	;volatile
  2230  0B44  393F               	andlw	-193
  2231  0B45  3880               	iorlw	128
  2232  0B46  009F               	movwf	31	;volatile
  2233  0B47                     l2139:
  2234                           
  2235                           ;Slave_1_main.c: 95:     ADCON0bits.CHS = 0;
  2236  0B47  30C3               	movlw	-61
  2237  0B48  059F               	andwf	31,f	;volatile
  2238  0B49                     l2141:
  2239                           
  2240                           ;Slave_1_main.c: 96:     ADCON0bits.ADON = 1;
  2241  0B49  141F               	bsf	31,0	;volatile
  2242  0B4A                     l2143:
  2243                           
  2244                           ;Slave_1_main.c: 97:     _delay((unsigned long)((50)*(8000000/4000000.0)));
  2245  0B4A  3021               	movlw	33
  2246  0B4B  00F4               	movwf	??_initSETUP
  2247  0B4C                     u4907:
  2248  0B4C  0BF4               	decfsz	??_initSETUP,f
  2249  0B4D  2B4C               	goto	u4907
  2250  0B4E                     l2145:
  2251                           
  2252                           ;Slave_1_main.c: 98:     ADCON0bits.GO = 1;
  2253  0B4E  1283               	bcf	3,5	;RP0=0, select bank0
  2254  0B4F  1303               	bcf	3,6	;RP1=0, select bank0
  2255  0B50  149F               	bsf	31,1	;volatile
  2256  0B51                     l2147:
  2257                           
  2258                           ;Slave_1_main.c: 100:     INTCONbits.GIE = 1;
  2259  0B51  178B               	bsf	11,7	;volatile
  2260  0B52                     l2149:
  2261                           
  2262                           ;Slave_1_main.c: 101:     INTCONbits.PEIE =1;
  2263  0B52  170B               	bsf	11,6	;volatile
  2264  0B53                     l175:
  2265  0B53  0008               	return
  2266  0B54                     __end_of_initSETUP:
  2267                           
  2268                           	psect	text7
  2269  0CF6                     __ptext7:	
  2270 ;; *************** function ___xxtofl *****************
  2271 ;; Defined at:
  2272 ;;		line 10 in file "C:\Program Files\Microchip\xc8\v2.32\pic\sources\c90\common\xxtofl.c"
  2273 ;; Parameters:    Size  Location     Type
  2274 ;;  sign            1    wreg     unsigned char 
  2275 ;;  val             4    0[BANK0 ] long 
  2276 ;; Auto vars:     Size  Location     Type
  2277 ;;  sign            1    8[BANK0 ] unsigned char 
  2278 ;;  arg             4   10[BANK0 ] unsigned long 
  2279 ;;  exp             1    9[BANK0 ] unsigned char 
  2280 ;; Return value:  Size  Location     Type
  2281 ;;                  4    0[BANK0 ] unsigned char 
  2282 ;; Registers used:
  2283 ;;		wreg, status,2, status,0
  2284 ;; Tracked objects:
  2285 ;;		On entry : 0/0
  2286 ;;		On exit  : 0/0
  2287 ;;		Unchanged: 0/0
  2288 ;; Data sizes:     COMMON   BANK0   BANK1   BANK3   BANK2
  2289 ;;      Params:         0       4       0       0       0
  2290 ;;      Locals:         0       6       0       0       0
  2291 ;;      Temps:          0       4       0       0       0
  2292 ;;      Totals:         0      14       0       0       0
  2293 ;;Total ram usage:       14 bytes
  2294 ;; Hardware stack levels used: 1
  2295 ;; Hardware stack levels required when called: 1
  2296 ;; This function calls:
  2297 ;;		Nothing
  2298 ;; This function is called by:
  2299 ;;		_main
  2300 ;; This function uses a non-reentrant model
  2301 ;;
  2302                           
  2303                           
  2304                           ;psect for function ___xxtofl
  2305  0CF6                     ___xxtofl:
  2306                           
  2307                           ;incstack = 0
  2308                           ; Regs used in ___xxtofl: [wreg+status,2+status,0]
  2309                           ;___xxtofl@sign stored from wreg
  2310  0CF6  1283               	bcf	3,5	;RP0=0, select bank0
  2311  0CF7  1303               	bcf	3,6	;RP1=0, select bank0
  2312  0CF8  00A8               	movwf	___xxtofl@sign
  2313  0CF9                     l3217:
  2314  0CF9  0828               	movf	___xxtofl@sign,w
  2315  0CFA  1903               	btfsc	3,2
  2316  0CFB  2CFD               	goto	u4751
  2317  0CFC  2CFE               	goto	u4750
  2318  0CFD                     u4751:
  2319  0CFD  2D12               	goto	l3223
  2320  0CFE                     u4750:
  2321  0CFE                     l3219:
  2322  0CFE  1FA3               	btfss	___xxtofl@val+3,7
  2323  0CFF  2D01               	goto	u4761
  2324  0D00  2D02               	goto	u4760
  2325  0D01                     u4761:
  2326  0D01  2D12               	goto	l3223
  2327  0D02                     u4760:
  2328  0D02                     l3221:
  2329  0D02  0920               	comf	___xxtofl@val,w
  2330  0D03  00AA               	movwf	___xxtofl@arg
  2331  0D04  0921               	comf	___xxtofl@val+1,w
  2332  0D05  00AB               	movwf	___xxtofl@arg+1
  2333  0D06  0922               	comf	___xxtofl@val+2,w
  2334  0D07  00AC               	movwf	___xxtofl@arg+2
  2335  0D08  0923               	comf	___xxtofl@val+3,w
  2336  0D09  00AD               	movwf	___xxtofl@arg+3
  2337  0D0A  0AAA               	incf	___xxtofl@arg,f
  2338  0D0B  1903               	skipnz
  2339  0D0C  0AAB               	incf	___xxtofl@arg+1,f
  2340  0D0D  1903               	skipnz
  2341  0D0E  0AAC               	incf	___xxtofl@arg+2,f
  2342  0D0F  1903               	skipnz
  2343  0D10  0AAD               	incf	___xxtofl@arg+3,f
  2344  0D11  2D1A               	goto	l729
  2345  0D12                     l3223:
  2346  0D12  0823               	movf	___xxtofl@val+3,w
  2347  0D13  00AD               	movwf	___xxtofl@arg+3
  2348  0D14  0822               	movf	___xxtofl@val+2,w
  2349  0D15  00AC               	movwf	___xxtofl@arg+2
  2350  0D16  0821               	movf	___xxtofl@val+1,w
  2351  0D17  00AB               	movwf	___xxtofl@arg+1
  2352  0D18  0820               	movf	___xxtofl@val,w
  2353  0D19  00AA               	movwf	___xxtofl@arg
  2354  0D1A                     l729:
  2355  0D1A  0823               	movf	___xxtofl@val+3,w
  2356  0D1B  0422               	iorwf	___xxtofl@val+2,w
  2357  0D1C  0421               	iorwf	___xxtofl@val+1,w
  2358  0D1D  0420               	iorwf	___xxtofl@val,w
  2359  0D1E  1D03               	skipz
  2360  0D1F  2D21               	goto	u4771
  2361  0D20  2D22               	goto	u4770
  2362  0D21                     u4771:
  2363  0D21  2D2B               	goto	l3229
  2364  0D22                     u4770:
  2365  0D22                     l3225:
  2366  0D22  3000               	movlw	0
  2367  0D23  00A3               	movwf	?___xxtofl+3
  2368  0D24  3000               	movlw	0
  2369  0D25  00A2               	movwf	?___xxtofl+2
  2370  0D26  3000               	movlw	0
  2371  0D27  00A1               	movwf	?___xxtofl+1
  2372  0D28  3000               	movlw	0
  2373  0D29  00A0               	movwf	?___xxtofl
  2374  0D2A  2DB1               	goto	l731
  2375  0D2B                     l3229:
  2376  0D2B  3096               	movlw	150
  2377  0D2C  00A4               	movwf	??___xxtofl
  2378  0D2D  0824               	movf	??___xxtofl,w
  2379  0D2E  00A9               	movwf	___xxtofl@exp
  2380  0D2F  2D3D               	goto	l3233
  2381  0D30                     l3231:
  2382  0D30  3001               	movlw	1
  2383  0D31  00A4               	movwf	??___xxtofl
  2384  0D32  0824               	movf	??___xxtofl,w
  2385  0D33  07A9               	addwf	___xxtofl@exp,f
  2386  0D34  3001               	movlw	1
  2387  0D35                     u4785:
  2388  0D35  1003               	clrc
  2389  0D36  0CAD               	rrf	___xxtofl@arg+3,f
  2390  0D37  0CAC               	rrf	___xxtofl@arg+2,f
  2391  0D38  0CAB               	rrf	___xxtofl@arg+1,f
  2392  0D39  0CAA               	rrf	___xxtofl@arg,f
  2393  0D3A  3EFF               	addlw	-1
  2394  0D3B  1D03               	skipz
  2395  0D3C  2D35               	goto	u4785
  2396  0D3D                     l3233:
  2397  0D3D  30FE               	movlw	254
  2398  0D3E  052D               	andwf	___xxtofl@arg+3,w
  2399  0D3F  1D03               	btfss	3,2
  2400  0D40  2D42               	goto	u4791
  2401  0D41  2D43               	goto	u4790
  2402  0D42                     u4791:
  2403  0D42  2D30               	goto	l3231
  2404  0D43                     u4790:
  2405  0D43  2D5F               	goto	l735
  2406  0D44                     l3235:
  2407  0D44  3001               	movlw	1
  2408  0D45  00A4               	movwf	??___xxtofl
  2409  0D46  0824               	movf	??___xxtofl,w
  2410  0D47  07A9               	addwf	___xxtofl@exp,f
  2411  0D48                     l3237:
  2412  0D48  3001               	movlw	1
  2413  0D49  07AA               	addwf	___xxtofl@arg,f
  2414  0D4A  3000               	movlw	0
  2415  0D4B  1803               	skipnc
  2416  0D4C  3001               	movlw	1
  2417  0D4D  07AB               	addwf	___xxtofl@arg+1,f
  2418  0D4E  3000               	movlw	0
  2419  0D4F  1803               	skipnc
  2420  0D50  3001               	movlw	1
  2421  0D51  07AC               	addwf	___xxtofl@arg+2,f
  2422  0D52  3000               	movlw	0
  2423  0D53  1803               	skipnc
  2424  0D54  3001               	movlw	1
  2425  0D55  07AD               	addwf	___xxtofl@arg+3,f
  2426  0D56                     l3239:
  2427  0D56  3001               	movlw	1
  2428  0D57                     u4805:
  2429  0D57  1003               	clrc
  2430  0D58  0CAD               	rrf	___xxtofl@arg+3,f
  2431  0D59  0CAC               	rrf	___xxtofl@arg+2,f
  2432  0D5A  0CAB               	rrf	___xxtofl@arg+1,f
  2433  0D5B  0CAA               	rrf	___xxtofl@arg,f
  2434  0D5C  3EFF               	addlw	-1
  2435  0D5D  1D03               	skipz
  2436  0D5E  2D57               	goto	u4805
  2437  0D5F                     l735:
  2438  0D5F  30FF               	movlw	255
  2439  0D60  052D               	andwf	___xxtofl@arg+3,w
  2440  0D61  1D03               	btfss	3,2
  2441  0D62  2D64               	goto	u4811
  2442  0D63  2D65               	goto	u4810
  2443  0D64                     u4811:
  2444  0D64  2D44               	goto	l3235
  2445  0D65                     u4810:
  2446  0D65  2D71               	goto	l3243
  2447  0D66                     l3241:
  2448  0D66  3001               	movlw	1
  2449  0D67  02A9               	subwf	___xxtofl@exp,f
  2450  0D68  3001               	movlw	1
  2451  0D69  00A4               	movwf	??___xxtofl
  2452  0D6A                     u4825:
  2453  0D6A  1003               	clrc
  2454  0D6B  0DAA               	rlf	___xxtofl@arg,f
  2455  0D6C  0DAB               	rlf	___xxtofl@arg+1,f
  2456  0D6D  0DAC               	rlf	___xxtofl@arg+2,f
  2457  0D6E  0DAD               	rlf	___xxtofl@arg+3,f
  2458  0D6F  0BA4               	decfsz	??___xxtofl,f
  2459  0D70  2D6A               	goto	u4825
  2460  0D71                     l3243:
  2461  0D71  1BAC               	btfsc	___xxtofl@arg+2,7
  2462  0D72  2D74               	goto	u4831
  2463  0D73  2D75               	goto	u4830
  2464  0D74                     u4831:
  2465  0D74  2D7B               	goto	l742
  2466  0D75                     u4830:
  2467  0D75                     l3245:
  2468  0D75  3002               	movlw	2
  2469  0D76  0229               	subwf	___xxtofl@exp,w
  2470  0D77  1803               	skipnc
  2471  0D78  2D7A               	goto	u4841
  2472  0D79  2D7B               	goto	u4840
  2473  0D7A                     u4841:
  2474  0D7A  2D66               	goto	l3241
  2475  0D7B                     u4840:
  2476  0D7B                     l742:
  2477  0D7B  1829               	btfsc	___xxtofl@exp,0
  2478  0D7C  2D7E               	goto	u4851
  2479  0D7D  2D7F               	goto	u4850
  2480  0D7E                     u4851:
  2481  0D7E  2D87               	goto	l743
  2482  0D7F                     u4850:
  2483  0D7F                     l3247:
  2484  0D7F  30FF               	movlw	255
  2485  0D80  05AA               	andwf	___xxtofl@arg,f
  2486  0D81  30FF               	movlw	255
  2487  0D82  05AB               	andwf	___xxtofl@arg+1,f
  2488  0D83  307F               	movlw	127
  2489  0D84  05AC               	andwf	___xxtofl@arg+2,f
  2490  0D85  30FF               	movlw	255
  2491  0D86  05AD               	andwf	___xxtofl@arg+3,f
  2492  0D87                     l743:
  2493  0D87  1003               	clrc
  2494  0D88  0CA9               	rrf	___xxtofl@exp,f
  2495  0D89                     l3249:
  2496  0D89  0829               	movf	___xxtofl@exp,w
  2497  0D8A  00A4               	movwf	??___xxtofl
  2498  0D8B  01A5               	clrf	??___xxtofl+1
  2499  0D8C  01A6               	clrf	??___xxtofl+2
  2500  0D8D  01A7               	clrf	??___xxtofl+3
  2501  0D8E  3018               	movlw	24
  2502  0D8F                     u4865:
  2503  0D8F  1003               	clrc
  2504  0D90  0DA4               	rlf	??___xxtofl,f
  2505  0D91  0DA5               	rlf	??___xxtofl+1,f
  2506  0D92  0DA6               	rlf	??___xxtofl+2,f
  2507  0D93  0DA7               	rlf	??___xxtofl+3,f
  2508  0D94                     u4860:
  2509  0D94  3EFF               	addlw	-1
  2510  0D95  1D03               	skipz
  2511  0D96  2D8F               	goto	u4865
  2512  0D97  0824               	movf	??___xxtofl,w
  2513  0D98  04AA               	iorwf	___xxtofl@arg,f
  2514  0D99  0825               	movf	??___xxtofl+1,w
  2515  0D9A  04AB               	iorwf	___xxtofl@arg+1,f
  2516  0D9B  0826               	movf	??___xxtofl+2,w
  2517  0D9C  04AC               	iorwf	___xxtofl@arg+2,f
  2518  0D9D  0827               	movf	??___xxtofl+3,w
  2519  0D9E  04AD               	iorwf	___xxtofl@arg+3,f
  2520  0D9F                     l3251:
  2521  0D9F  0828               	movf	___xxtofl@sign,w
  2522  0DA0  1903               	btfsc	3,2
  2523  0DA1  2DA3               	goto	u4871
  2524  0DA2  2DA4               	goto	u4870
  2525  0DA3                     u4871:
  2526  0DA3  2DA9               	goto	l3257
  2527  0DA4                     u4870:
  2528  0DA4                     l3253:
  2529  0DA4  1FA3               	btfss	___xxtofl@val+3,7
  2530  0DA5  2DA7               	goto	u4881
  2531  0DA6  2DA8               	goto	u4880
  2532  0DA7                     u4881:
  2533  0DA7  2DA9               	goto	l3257
  2534  0DA8                     u4880:
  2535  0DA8                     l3255:
  2536  0DA8  17AD               	bsf	___xxtofl@arg+3,7
  2537  0DA9                     l3257:
  2538  0DA9  082D               	movf	___xxtofl@arg+3,w
  2539  0DAA  00A3               	movwf	?___xxtofl+3
  2540  0DAB  082C               	movf	___xxtofl@arg+2,w
  2541  0DAC  00A2               	movwf	?___xxtofl+2
  2542  0DAD  082B               	movf	___xxtofl@arg+1,w
  2543  0DAE  00A1               	movwf	?___xxtofl+1
  2544  0DAF  082A               	movf	___xxtofl@arg,w
  2545  0DB0  00A0               	movwf	?___xxtofl
  2546  0DB1                     l731:
  2547  0DB1  0008               	return
  2548  0DB2                     __end_of___xxtofl:
  2549                           
  2550                           	psect	text8
  2551  0C7A                     __ptext8:	
  2552 ;; *************** function ___fltol *****************
  2553 ;; Defined at:
  2554 ;;		line 43 in file "C:\Program Files\Microchip\xc8\v2.32\pic\sources\c90\common\fltol.c"
  2555 ;; Parameters:    Size  Location     Type
  2556 ;;  f1              4    0[BANK0 ] unsigned char 
  2557 ;; Auto vars:     Size  Location     Type
  2558 ;;  exp1            1    5[COMMON] unsigned char 
  2559 ;;  sign1           1    4[COMMON] unsigned char 
  2560 ;; Return value:  Size  Location     Type
  2561 ;;                  4    0[BANK0 ] long 
  2562 ;; Registers used:
  2563 ;;		wreg, status,2, status,0
  2564 ;; Tracked objects:
  2565 ;;		On entry : 0/0
  2566 ;;		On exit  : 0/0
  2567 ;;		Unchanged: 0/0
  2568 ;; Data sizes:     COMMON   BANK0   BANK1   BANK3   BANK2
  2569 ;;      Params:         0       4       0       0       0
  2570 ;;      Locals:         2       0       0       0       0
  2571 ;;      Temps:          0       5       0       0       0
  2572 ;;      Totals:         2       9       0       0       0
  2573 ;;Total ram usage:       11 bytes
  2574 ;; Hardware stack levels used: 1
  2575 ;; Hardware stack levels required when called: 1
  2576 ;; This function calls:
  2577 ;;		Nothing
  2578 ;; This function is called by:
  2579 ;;		_main
  2580 ;; This function uses a non-reentrant model
  2581 ;;
  2582                           
  2583                           
  2584                           ;psect for function ___fltol
  2585  0C7A                     ___fltol:
  2586  0C7A                     l3035:	
  2587                           ;incstack = 0
  2588                           ; Regs used in ___fltol: [wreg+status,2+status,0]
  2589                           
  2590  0C7A  1003               	clrc
  2591  0C7B  1283               	bcf	3,5	;RP0=0, select bank0
  2592  0C7C  1303               	bcf	3,6	;RP1=0, select bank0
  2593  0C7D  0D22               	rlf	___fltol@f1+2,w
  2594  0C7E  0D23               	rlf	___fltol@f1+3,w
  2595  0C7F  00A4               	movwf	??___fltol
  2596  0C80  0824               	movf	??___fltol,w
  2597  0C81  00F5               	movwf	___fltol@exp1
  2598  0C82  0875               	movf	___fltol@exp1,w
  2599  0C83  1D03               	btfss	3,2
  2600  0C84  2C86               	goto	u4281
  2601  0C85  2C87               	goto	u4280
  2602  0C86                     u4281:
  2603  0C86  2C90               	goto	l3041
  2604  0C87                     u4280:
  2605  0C87                     l3037:
  2606  0C87  3000               	movlw	0
  2607  0C88  00A3               	movwf	?___fltol+3
  2608  0C89  3000               	movlw	0
  2609  0C8A  00A2               	movwf	?___fltol+2
  2610  0C8B  3000               	movlw	0
  2611  0C8C  00A1               	movwf	?___fltol+1
  2612  0C8D  3000               	movlw	0
  2613  0C8E  00A0               	movwf	?___fltol
  2614  0C8F  2CF5               	goto	l482
  2615  0C90                     l3041:
  2616  0C90  0820               	movf	___fltol@f1,w
  2617  0C91  00A4               	movwf	??___fltol
  2618  0C92  0821               	movf	___fltol@f1+1,w
  2619  0C93  00A5               	movwf	??___fltol+1
  2620  0C94  0822               	movf	___fltol@f1+2,w
  2621  0C95  00A6               	movwf	??___fltol+2
  2622  0C96  0823               	movf	___fltol@f1+3,w
  2623  0C97  00A7               	movwf	??___fltol+3
  2624  0C98  301F               	movlw	31
  2625  0C99                     u4295:
  2626  0C99  1003               	clrc
  2627  0C9A  0CA7               	rrf	??___fltol+3,f
  2628  0C9B  0CA6               	rrf	??___fltol+2,f
  2629  0C9C  0CA5               	rrf	??___fltol+1,f
  2630  0C9D  0CA4               	rrf	??___fltol,f
  2631  0C9E                     u4290:
  2632  0C9E  3EFF               	addlw	-1
  2633  0C9F  1D03               	skipz
  2634  0CA0  2C99               	goto	u4295
  2635  0CA1  0824               	movf	??___fltol,w
  2636  0CA2  00A8               	movwf	??___fltol+4
  2637  0CA3  0828               	movf	??___fltol+4,w
  2638  0CA4  00F4               	movwf	___fltol@sign1
  2639  0CA5                     l3043:
  2640  0CA5  17A2               	bsf	___fltol@f1+2,7
  2641  0CA6                     l3045:
  2642  0CA6  30FF               	movlw	255
  2643  0CA7  05A0               	andwf	___fltol@f1,f
  2644  0CA8  30FF               	movlw	255
  2645  0CA9  05A1               	andwf	___fltol@f1+1,f
  2646  0CAA  30FF               	movlw	255
  2647  0CAB  05A2               	andwf	___fltol@f1+2,f
  2648  0CAC  3000               	movlw	0
  2649  0CAD  05A3               	andwf	___fltol@f1+3,f
  2650  0CAE                     l3047:
  2651  0CAE  3096               	movlw	150
  2652  0CAF  02F5               	subwf	___fltol@exp1,f
  2653  0CB0                     l3049:
  2654  0CB0  1FF5               	btfss	___fltol@exp1,7
  2655  0CB1  2CB3               	goto	u4301
  2656  0CB2  2CB4               	goto	u4300
  2657  0CB3                     u4301:
  2658  0CB3  2CCE               	goto	l3059
  2659  0CB4                     u4300:
  2660  0CB4                     l3051:
  2661  0CB4  0875               	movf	___fltol@exp1,w
  2662  0CB5  3A80               	xorlw	128
  2663  0CB6  3E97               	addlw	151
  2664  0CB7  1803               	skipnc
  2665  0CB8  2CBA               	goto	u4311
  2666  0CB9  2CBB               	goto	u4310
  2667  0CBA                     u4311:
  2668  0CBA  2CBC               	goto	l3057
  2669  0CBB                     u4310:
  2670  0CBB  2C87               	goto	l3037
  2671  0CBC                     l3057:
  2672  0CBC  3001               	movlw	1
  2673  0CBD                     u4325:
  2674  0CBD  1003               	clrc
  2675  0CBE  0CA3               	rrf	___fltol@f1+3,f
  2676  0CBF  0CA2               	rrf	___fltol@f1+2,f
  2677  0CC0  0CA1               	rrf	___fltol@f1+1,f
  2678  0CC1  0CA0               	rrf	___fltol@f1,f
  2679  0CC2  3EFF               	addlw	-1
  2680  0CC3  1D03               	skipz
  2681  0CC4  2CBD               	goto	u4325
  2682  0CC5  3001               	movlw	1
  2683  0CC6  00A4               	movwf	??___fltol
  2684  0CC7  0824               	movf	??___fltol,w
  2685  0CC8  07F5               	addwf	___fltol@exp1,f
  2686  0CC9  1D03               	btfss	3,2
  2687  0CCA  2CCC               	goto	u4331
  2688  0CCB  2CCD               	goto	u4330
  2689  0CCC                     u4331:
  2690  0CCC  2CBC               	goto	l3057
  2691  0CCD                     u4330:
  2692  0CCD  2CE5               	goto	l3067
  2693  0CCE                     l3059:
  2694  0CCE  3020               	movlw	32
  2695  0CCF  0275               	subwf	___fltol@exp1,w
  2696  0CD0  1C03               	skipc
  2697  0CD1  2CD3               	goto	u4341
  2698  0CD2  2CD4               	goto	u4340
  2699  0CD3                     u4341:
  2700  0CD3  2CE0               	goto	l489
  2701  0CD4                     u4340:
  2702  0CD4  2C87               	goto	l3037
  2703  0CD5                     l3065:
  2704  0CD5  3001               	movlw	1
  2705  0CD6  00A4               	movwf	??___fltol
  2706  0CD7                     u4355:
  2707  0CD7  1003               	clrc
  2708  0CD8  0DA0               	rlf	___fltol@f1,f
  2709  0CD9  0DA1               	rlf	___fltol@f1+1,f
  2710  0CDA  0DA2               	rlf	___fltol@f1+2,f
  2711  0CDB  0DA3               	rlf	___fltol@f1+3,f
  2712  0CDC  0BA4               	decfsz	??___fltol,f
  2713  0CDD  2CD7               	goto	u4355
  2714  0CDE  3001               	movlw	1
  2715  0CDF  02F5               	subwf	___fltol@exp1,f
  2716  0CE0                     l489:
  2717  0CE0  0875               	movf	___fltol@exp1,w
  2718  0CE1  1D03               	btfss	3,2
  2719  0CE2  2CE4               	goto	u4361
  2720  0CE3  2CE5               	goto	u4360
  2721  0CE4                     u4361:
  2722  0CE4  2CD5               	goto	l3065
  2723  0CE5                     u4360:
  2724  0CE5                     l3067:
  2725  0CE5  0874               	movf	___fltol@sign1,w
  2726  0CE6  1903               	btfsc	3,2
  2727  0CE7  2CE9               	goto	u4371
  2728  0CE8  2CEA               	goto	u4370
  2729  0CE9                     u4371:
  2730  0CE9  2CF5               	goto	l492
  2731  0CEA                     u4370:
  2732  0CEA                     l3069:
  2733  0CEA  09A0               	comf	___fltol@f1,f
  2734  0CEB  09A1               	comf	___fltol@f1+1,f
  2735  0CEC  09A2               	comf	___fltol@f1+2,f
  2736  0CED  09A3               	comf	___fltol@f1+3,f
  2737  0CEE  0AA0               	incf	___fltol@f1,f
  2738  0CEF  1903               	skipnz
  2739  0CF0  0AA1               	incf	___fltol@f1+1,f
  2740  0CF1  1903               	skipnz
  2741  0CF2  0AA2               	incf	___fltol@f1+2,f
  2742  0CF3  1903               	skipnz
  2743  0CF4  0AA3               	incf	___fltol@f1+3,f
  2744  0CF5                     l492:
  2745  0CF5                     l482:
  2746  0CF5  0008               	return
  2747  0CF6                     __end_of___fltol:
  2748                           
  2749                           	psect	text9
  2750  0A59                     __ptext9:	
  2751 ;; *************** function ___flsub *****************
  2752 ;; Defined at:
  2753 ;;		line 242 in file "C:\Program Files\Microchip\xc8\v2.32\pic\sources\c90\common\sprcadd.c"
  2754 ;; Parameters:    Size  Location     Type
  2755 ;;  a               4   40[BANK0 ] long 
  2756 ;;  b               4   44[BANK0 ] long 
  2757 ;; Auto vars:     Size  Location     Type
  2758 ;;		None
  2759 ;; Return value:  Size  Location     Type
  2760 ;;                  4   40[BANK0 ] long 
  2761 ;; Registers used:
  2762 ;;		wreg, status,2, status,0, btemp+1, pclath, cstack
  2763 ;; Tracked objects:
  2764 ;;		On entry : 0/0
  2765 ;;		On exit  : 0/0
  2766 ;;		Unchanged: 0/0
  2767 ;; Data sizes:     COMMON   BANK0   BANK1   BANK3   BANK2
  2768 ;;      Params:         0       8       0       0       0
  2769 ;;      Locals:         0       0       0       0       0
  2770 ;;      Temps:          0       0       0       0       0
  2771 ;;      Totals:         0       8       0       0       0
  2772 ;;Total ram usage:        8 bytes
  2773 ;; Hardware stack levels used: 1
  2774 ;; Hardware stack levels required when called: 2
  2775 ;; This function calls:
  2776 ;;		___fladd
  2777 ;; This function is called by:
  2778 ;;		_main
  2779 ;; This function uses a non-reentrant model
  2780 ;;
  2781                           
  2782                           
  2783                           ;psect for function ___flsub
  2784  0A59                     ___flsub:
  2785  0A59                     l3071:	
  2786                           ;incstack = 0
  2787                           ; Regs used in ___flsub: [wreg+status,2+status,0+btemp+1+pclath+cstack]
  2788                           
  2789  0A59  3080               	movlw	128
  2790  0A5A  1283               	bcf	3,5	;RP0=0, select bank0
  2791  0A5B  1303               	bcf	3,6	;RP1=0, select bank0
  2792  0A5C  06CB               	xorwf	___flsub@a+3,f
  2793  0A5D                     l3073:
  2794  0A5D  084F               	movf	___flsub@b+3,w
  2795  0A5E  00A3               	movwf	___fladd@b+3
  2796  0A5F  084E               	movf	___flsub@b+2,w
  2797  0A60  00A2               	movwf	___fladd@b+2
  2798  0A61  084D               	movf	___flsub@b+1,w
  2799  0A62  00A1               	movwf	___fladd@b+1
  2800  0A63  084C               	movf	___flsub@b,w
  2801  0A64  00A0               	movwf	___fladd@b
  2802  0A65  084B               	movf	___flsub@a+3,w
  2803  0A66  00A7               	movwf	___fladd@a+3
  2804  0A67  084A               	movf	___flsub@a+2,w
  2805  0A68  00A6               	movwf	___fladd@a+2
  2806  0A69  0849               	movf	___flsub@a+1,w
  2807  0A6A  00A5               	movwf	___fladd@a+1
  2808  0A6B  0848               	movf	___flsub@a,w
  2809  0A6C  00A4               	movwf	___fladd@a
  2810  0A6D  120A  118A  2389  120A  158A  	fcall	___fladd
  2811  0A72  1283               	bcf	3,5	;RP0=0, select bank0
  2812  0A73  1303               	bcf	3,6	;RP1=0, select bank0
  2813  0A74  0823               	movf	?___fladd+3,w
  2814  0A75  00CB               	movwf	?___flsub+3
  2815  0A76  0822               	movf	?___fladd+2,w
  2816  0A77  00CA               	movwf	?___flsub+2
  2817  0A78  0821               	movf	?___fladd+1,w
  2818  0A79  00C9               	movwf	?___flsub+1
  2819  0A7A  0820               	movf	?___fladd,w
  2820  0A7B  00C8               	movwf	?___flsub
  2821  0A7C                     l635:
  2822  0A7C  0008               	return
  2823  0A7D                     __end_of___flsub:
  2824                           
  2825                           	psect	text10
  2826  0389                     __ptext10:	
  2827 ;; *************** function ___fladd *****************
  2828 ;; Defined at:
  2829 ;;		line 10 in file "C:\Program Files\Microchip\xc8\v2.32\pic\sources\c90\common\sprcadd.c"
  2830 ;; Parameters:    Size  Location     Type
  2831 ;;  b               4    0[BANK0 ] long 
  2832 ;;  a               4    4[BANK0 ] long 
  2833 ;; Auto vars:     Size  Location     Type
  2834 ;;  grs             1   19[BANK0 ] unsigned char 
  2835 ;;  bexp            1   18[BANK0 ] unsigned char 
  2836 ;;  aexp            1   17[BANK0 ] unsigned char 
  2837 ;;  signs           1   16[BANK0 ] unsigned char 
  2838 ;; Return value:  Size  Location     Type
  2839 ;;                  4    0[BANK0 ] unsigned char 
  2840 ;; Registers used:
  2841 ;;		wreg, status,2, status,0, btemp+1
  2842 ;; Tracked objects:
  2843 ;;		On entry : 0/0
  2844 ;;		On exit  : 0/0
  2845 ;;		Unchanged: 0/0
  2846 ;; Data sizes:     COMMON   BANK0   BANK1   BANK3   BANK2
  2847 ;;      Params:         0       8       0       0       0
  2848 ;;      Locals:         0       4       0       0       0
  2849 ;;      Temps:          0       8       0       0       0
  2850 ;;      Totals:         0      20       0       0       0
  2851 ;;Total ram usage:       20 bytes
  2852 ;; Hardware stack levels used: 1
  2853 ;; Hardware stack levels required when called: 1
  2854 ;; This function calls:
  2855 ;;		Nothing
  2856 ;; This function is called by:
  2857 ;;		___flsub
  2858 ;; This function uses a non-reentrant model
  2859 ;;
  2860                           
  2861                           
  2862                           ;psect for function ___fladd
  2863  0389                     ___fladd:
  2864  0389                     l2709:	
  2865                           ;incstack = 0
  2866                           ; Regs used in ___fladd: [wreg+status,2+status,0+btemp+1]
  2867                           
  2868  0389  1283               	bcf	3,5	;RP0=0, select bank0
  2869  038A  1303               	bcf	3,6	;RP1=0, select bank0
  2870  038B  0823               	movf	___fladd@b+3,w
  2871  038C  3980               	andlw	128
  2872  038D  00A8               	movwf	??___fladd
  2873  038E  0828               	movf	??___fladd,w
  2874  038F  00B0               	movwf	___fladd@signs
  2875  0390                     l2711:
  2876  0390  0823               	movf	___fladd@b+3,w
  2877  0391  00A8               	movwf	??___fladd
  2878  0392  0728               	addwf	??___fladd,w
  2879  0393  00A9               	movwf	??___fladd+1
  2880  0394  0829               	movf	??___fladd+1,w
  2881  0395  00B2               	movwf	___fladd@bexp
  2882  0396                     l2713:
  2883  0396  1FA2               	btfss	___fladd@b+2,7
  2884  0397  2B99               	goto	u3641
  2885  0398  2B9A               	goto	u3640
  2886  0399                     u3641:
  2887  0399  2B9B               	goto	l2717
  2888  039A                     u3640:
  2889  039A                     l2715:
  2890  039A  1432               	bsf	___fladd@bexp,0
  2891  039B                     l2717:
  2892  039B  0832               	movf	___fladd@bexp,w
  2893  039C  1903               	btfsc	3,2
  2894  039D  2B9F               	goto	u3651
  2895  039E  2BA0               	goto	u3650
  2896  039F                     u3651:
  2897  039F  2BB0               	goto	l2727
  2898  03A0                     u3650:
  2899  03A0                     l2719:
  2900  03A0  0A32               	incf	___fladd@bexp,w
  2901  03A1  1D03               	btfss	3,2
  2902  03A2  2BA4               	goto	u3661
  2903  03A3  2BA5               	goto	u3660
  2904  03A4                     u3661:
  2905  03A4  2BAD               	goto	l2723
  2906  03A5                     u3660:
  2907  03A5                     l2721:
  2908  03A5  3000               	movlw	0
  2909  03A6  00A3               	movwf	___fladd@b+3
  2910  03A7  3000               	movlw	0
  2911  03A8  00A2               	movwf	___fladd@b+2
  2912  03A9  3000               	movlw	0
  2913  03AA  00A1               	movwf	___fladd@b+1
  2914  03AB  3000               	movlw	0
  2915  03AC  00A0               	movwf	___fladd@b
  2916  03AD                     l2723:
  2917  03AD  17A2               	bsf	___fladd@b+2,7
  2918  03AE                     l2725:
  2919  03AE  01A3               	clrf	___fladd@b+3
  2920  03AF  2BB8               	goto	l2729
  2921  03B0                     l2727:
  2922  03B0  3000               	movlw	0
  2923  03B1  00A3               	movwf	___fladd@b+3
  2924  03B2  3000               	movlw	0
  2925  03B3  00A2               	movwf	___fladd@b+2
  2926  03B4  3000               	movlw	0
  2927  03B5  00A1               	movwf	___fladd@b+1
  2928  03B6  3000               	movlw	0
  2929  03B7  00A0               	movwf	___fladd@b
  2930  03B8                     l2729:
  2931  03B8  0827               	movf	___fladd@a+3,w
  2932  03B9  3980               	andlw	128
  2933  03BA  00A8               	movwf	??___fladd
  2934  03BB  0828               	movf	??___fladd,w
  2935  03BC  00B1               	movwf	___fladd@aexp
  2936  03BD                     l2731:
  2937  03BD  0831               	movf	___fladd@aexp,w
  2938  03BE  0630               	xorwf	___fladd@signs,w
  2939  03BF  1903               	skipnz
  2940  03C0  2BC2               	goto	u3671
  2941  03C1  2BC3               	goto	u3670
  2942  03C2                     u3671:
  2943  03C2  2BC4               	goto	l2735
  2944  03C3                     u3670:
  2945  03C3                     l2733:
  2946  03C3  1730               	bsf	___fladd@signs,6
  2947  03C4                     l2735:
  2948  03C4  0827               	movf	___fladd@a+3,w
  2949  03C5  00A8               	movwf	??___fladd
  2950  03C6  0728               	addwf	??___fladd,w
  2951  03C7  00A9               	movwf	??___fladd+1
  2952  03C8  0829               	movf	??___fladd+1,w
  2953  03C9  00B1               	movwf	___fladd@aexp
  2954  03CA                     l2737:
  2955  03CA  1FA6               	btfss	___fladd@a+2,7
  2956  03CB  2BCD               	goto	u3681
  2957  03CC  2BCE               	goto	u3680
  2958  03CD                     u3681:
  2959  03CD  2BCF               	goto	l2741
  2960  03CE                     u3680:
  2961  03CE                     l2739:
  2962  03CE  1431               	bsf	___fladd@aexp,0
  2963  03CF                     l2741:
  2964  03CF  0831               	movf	___fladd@aexp,w
  2965  03D0  1903               	btfsc	3,2
  2966  03D1  2BD3               	goto	u3691
  2967  03D2  2BD4               	goto	u3690
  2968  03D3                     u3691:
  2969  03D3  2BE4               	goto	l2751
  2970  03D4                     u3690:
  2971  03D4                     l2743:
  2972  03D4  0A31               	incf	___fladd@aexp,w
  2973  03D5  1D03               	btfss	3,2
  2974  03D6  2BD8               	goto	u3701
  2975  03D7  2BD9               	goto	u3700
  2976  03D8                     u3701:
  2977  03D8  2BE1               	goto	l2747
  2978  03D9                     u3700:
  2979  03D9                     l2745:
  2980  03D9  3000               	movlw	0
  2981  03DA  00A7               	movwf	___fladd@a+3
  2982  03DB  3000               	movlw	0
  2983  03DC  00A6               	movwf	___fladd@a+2
  2984  03DD  3000               	movlw	0
  2985  03DE  00A5               	movwf	___fladd@a+1
  2986  03DF  3000               	movlw	0
  2987  03E0  00A4               	movwf	___fladd@a
  2988  03E1                     l2747:
  2989  03E1  17A6               	bsf	___fladd@a+2,7
  2990  03E2                     l2749:
  2991  03E2  01A7               	clrf	___fladd@a+3
  2992  03E3  2BEC               	goto	l589
  2993  03E4                     l2751:
  2994  03E4  3000               	movlw	0
  2995  03E5  00A7               	movwf	___fladd@a+3
  2996  03E6  3000               	movlw	0
  2997  03E7  00A6               	movwf	___fladd@a+2
  2998  03E8  3000               	movlw	0
  2999  03E9  00A5               	movwf	___fladd@a+1
  3000  03EA  3000               	movlw	0
  3001  03EB  00A4               	movwf	___fladd@a
  3002  03EC                     l589:
  3003  03EC  0832               	movf	___fladd@bexp,w
  3004  03ED  0231               	subwf	___fladd@aexp,w
  3005  03EE  1803               	skipnc
  3006  03EF  2BF1               	goto	u3711
  3007  03F0  2BF2               	goto	u3710
  3008  03F1                     u3711:
  3009  03F1  2C36               	goto	l2787
  3010  03F2                     u3710:
  3011  03F2                     l2753:
  3012  03F2  1F30               	btfss	___fladd@signs,6
  3013  03F3  2BF5               	goto	u3721
  3014  03F4  2BF6               	goto	u3720
  3015  03F5                     u3721:
  3016  03F5  2BFA               	goto	l2757
  3017  03F6                     u3720:
  3018  03F6                     l2755:
  3019  03F6  3080               	movlw	128
  3020  03F7  00A8               	movwf	??___fladd
  3021  03F8  0828               	movf	??___fladd,w
  3022  03F9  06B0               	xorwf	___fladd@signs,f
  3023  03FA                     l2757:
  3024  03FA  0832               	movf	___fladd@bexp,w
  3025  03FB  00A8               	movwf	??___fladd
  3026  03FC  0828               	movf	??___fladd,w
  3027  03FD  00B3               	movwf	___fladd@grs
  3028  03FE                     l2759:
  3029  03FE  0831               	movf	___fladd@aexp,w
  3030  03FF  00A8               	movwf	??___fladd
  3031  0400  0828               	movf	??___fladd,w
  3032  0401  00B2               	movwf	___fladd@bexp
  3033  0402                     l2761:
  3034  0402  0833               	movf	___fladd@grs,w
  3035  0403  00A8               	movwf	??___fladd
  3036  0404  0828               	movf	??___fladd,w
  3037  0405  00B1               	movwf	___fladd@aexp
  3038  0406                     l2763:
  3039  0406  0820               	movf	___fladd@b,w
  3040  0407  00A8               	movwf	??___fladd
  3041  0408  0828               	movf	??___fladd,w
  3042  0409  00B3               	movwf	___fladd@grs
  3043  040A                     l2765:
  3044  040A  0824               	movf	___fladd@a,w
  3045  040B  00A8               	movwf	??___fladd
  3046  040C  0828               	movf	??___fladd,w
  3047  040D  00A0               	movwf	___fladd@b
  3048  040E                     l2767:
  3049  040E  0833               	movf	___fladd@grs,w
  3050  040F  00A8               	movwf	??___fladd
  3051  0410  0828               	movf	??___fladd,w
  3052  0411  00A4               	movwf	___fladd@a
  3053  0412                     l2769:
  3054  0412  0821               	movf	___fladd@b+1,w
  3055  0413  00A8               	movwf	??___fladd
  3056  0414  0828               	movf	??___fladd,w
  3057  0415  00B3               	movwf	___fladd@grs
  3058  0416                     l2771:
  3059  0416  0825               	movf	___fladd@a+1,w
  3060  0417  00A8               	movwf	??___fladd
  3061  0418  0828               	movf	??___fladd,w
  3062  0419  00A1               	movwf	___fladd@b+1
  3063  041A                     l2773:
  3064  041A  0833               	movf	___fladd@grs,w
  3065  041B  00A8               	movwf	??___fladd
  3066  041C  0828               	movf	??___fladd,w
  3067  041D  00A5               	movwf	___fladd@a+1
  3068  041E                     l2775:
  3069  041E  0822               	movf	___fladd@b+2,w
  3070  041F  00A8               	movwf	??___fladd
  3071  0420  0828               	movf	??___fladd,w
  3072  0421  00B3               	movwf	___fladd@grs
  3073  0422                     l2777:
  3074  0422  0826               	movf	___fladd@a+2,w
  3075  0423  00A8               	movwf	??___fladd
  3076  0424  0828               	movf	??___fladd,w
  3077  0425  00A2               	movwf	___fladd@b+2
  3078  0426                     l2779:
  3079  0426  0833               	movf	___fladd@grs,w
  3080  0427  00A8               	movwf	??___fladd
  3081  0428  0828               	movf	??___fladd,w
  3082  0429  00A6               	movwf	___fladd@a+2
  3083  042A                     l2781:
  3084  042A  0823               	movf	___fladd@b+3,w
  3085  042B  00A8               	movwf	??___fladd
  3086  042C  0828               	movf	??___fladd,w
  3087  042D  00B3               	movwf	___fladd@grs
  3088  042E                     l2783:
  3089  042E  0827               	movf	___fladd@a+3,w
  3090  042F  00A8               	movwf	??___fladd
  3091  0430  0828               	movf	??___fladd,w
  3092  0431  00A3               	movwf	___fladd@b+3
  3093  0432                     l2785:
  3094  0432  0833               	movf	___fladd@grs,w
  3095  0433  00A8               	movwf	??___fladd
  3096  0434  0828               	movf	??___fladd,w
  3097  0435  00A7               	movwf	___fladd@a+3
  3098  0436                     l2787:
  3099  0436  01B3               	clrf	___fladd@grs
  3100  0437                     l2789:
  3101  0437  0831               	movf	___fladd@aexp,w
  3102  0438  00A8               	movwf	??___fladd
  3103  0439  01A9               	clrf	??___fladd+1
  3104  043A  0829               	movf	??___fladd+1,w
  3105  043B  00AB               	movwf	??___fladd+3
  3106  043C  0832               	movf	___fladd@bexp,w
  3107  043D  0228               	subwf	??___fladd,w
  3108  043E  00AA               	movwf	??___fladd+2
  3109  043F  1C03               	skipc
  3110  0440  03AB               	decf	??___fladd+3,f
  3111  0441  082B               	movf	??___fladd+3,w
  3112  0442  3A80               	xorlw	128
  3113  0443  00FF               	movwf	btemp+1
  3114  0444  3080               	movlw	128
  3115  0445  027F               	subwf	btemp+1,w
  3116  0446  1D03               	skipz
  3117  0447  2C4A               	goto	u3735
  3118  0448  301A               	movlw	26
  3119  0449  022A               	subwf	??___fladd+2,w
  3120  044A                     u3735:
  3121  044A  1C03               	skipc
  3122  044B  2C4D               	goto	u3731
  3123  044C  2C4E               	goto	u3730
  3124  044D                     u3731:
  3125  044D  2C8B               	goto	l2805
  3126  044E                     u3730:
  3127  044E                     l2791:
  3128  044E  1283               	bcf	3,5	;RP0=0, select bank0
  3129  044F  1303               	bcf	3,6	;RP1=0, select bank0
  3130  0450  0823               	movf	___fladd@b+3,w
  3131  0451  0422               	iorwf	___fladd@b+2,w
  3132  0452  0421               	iorwf	___fladd@b+1,w
  3133  0453  0420               	iorwf	___fladd@b,w
  3134  0454  1D03               	skipz
  3135  0455  2C57               	goto	u3741
  3136  0456  2C59               	goto	u3740
  3137  0457                     u3741:
  3138  0457  3001               	movlw	1
  3139  0458  2C5A               	goto	u3750
  3140  0459                     u3740:
  3141  0459  3000               	movlw	0
  3142  045A                     u3750:
  3143  045A  00A8               	movwf	??___fladd
  3144  045B  0828               	movf	??___fladd,w
  3145  045C  00B3               	movwf	___fladd@grs
  3146  045D  3000               	movlw	0
  3147  045E  00A3               	movwf	___fladd@b+3
  3148  045F  3000               	movlw	0
  3149  0460  00A2               	movwf	___fladd@b+2
  3150  0461  3000               	movlw	0
  3151  0462  00A1               	movwf	___fladd@b+1
  3152  0463  3000               	movlw	0
  3153  0464  00A0               	movwf	___fladd@b
  3154  0465  0831               	movf	___fladd@aexp,w
  3155  0466  00A8               	movwf	??___fladd
  3156  0467  0828               	movf	??___fladd,w
  3157  0468  00B2               	movwf	___fladd@bexp
  3158  0469  2C93               	goto	l593
  3159  046A                     l595:
  3160  046A  1C33               	btfss	___fladd@grs,0
  3161  046B  2C6D               	goto	u3761
  3162  046C  2C6E               	goto	u3760
  3163  046D                     u3761:
  3164  046D  2C77               	goto	l2795
  3165  046E                     u3760:
  3166  046E                     l2793:
  3167  046E  0833               	movf	___fladd@grs,w
  3168  046F  00A8               	movwf	??___fladd
  3169  0470  1003               	clrc
  3170  0471  0C28               	rrf	??___fladd,w
  3171  0472  3801               	iorlw	1
  3172  0473  00A9               	movwf	??___fladd+1
  3173  0474  0829               	movf	??___fladd+1,w
  3174  0475  00B3               	movwf	___fladd@grs
  3175  0476  2C79               	goto	l2797
  3176  0477                     l2795:
  3177  0477  1003               	clrc
  3178  0478  0CB3               	rrf	___fladd@grs,f
  3179  0479                     l2797:
  3180  0479  1C20               	btfss	___fladd@b,0
  3181  047A  2C7C               	goto	u3771
  3182  047B  2C7D               	goto	u3770
  3183  047C                     u3771:
  3184  047C  2C7E               	goto	l2801
  3185  047D                     u3770:
  3186  047D                     l2799:
  3187  047D  17B3               	bsf	___fladd@grs,7
  3188  047E                     l2801:
  3189  047E  3001               	movlw	1
  3190  047F  00A8               	movwf	??___fladd
  3191  0480                     u3785:
  3192  0480  0D23               	rlf	___fladd@b+3,w
  3193  0481  0CA3               	rrf	___fladd@b+3,f
  3194  0482  0CA2               	rrf	___fladd@b+2,f
  3195  0483  0CA1               	rrf	___fladd@b+1,f
  3196  0484  0CA0               	rrf	___fladd@b,f
  3197  0485  0BA8               	decfsz	??___fladd& (0+127),f
  3198  0486  2C80               	goto	u3785
  3199  0487                     l2803:
  3200  0487  3001               	movlw	1
  3201  0488  00A8               	movwf	??___fladd
  3202  0489  0828               	movf	??___fladd,w
  3203  048A  07B2               	addwf	___fladd@bexp,f
  3204  048B                     l2805:
  3205  048B  1283               	bcf	3,5	;RP0=0, select bank0
  3206  048C  1303               	bcf	3,6	;RP1=0, select bank0
  3207  048D  0831               	movf	___fladd@aexp,w
  3208  048E  0232               	subwf	___fladd@bexp,w
  3209  048F  1C03               	skipc
  3210  0490  2C92               	goto	u3791
  3211  0491  2C93               	goto	u3790
  3212  0492                     u3791:
  3213  0492  2C6A               	goto	l595
  3214  0493                     u3790:
  3215  0493                     l593:
  3216  0493  1B30               	btfsc	___fladd@signs,6
  3217  0494  2C96               	goto	u3801
  3218  0495  2C97               	goto	u3800
  3219  0496                     u3801:
  3220  0496  2CE2               	goto	l2831
  3221  0497                     u3800:
  3222  0497                     l2807:
  3223  0497  0832               	movf	___fladd@bexp,w
  3224  0498  1D03               	btfss	3,2
  3225  0499  2C9B               	goto	u3811
  3226  049A  2C9C               	goto	u3810
  3227  049B                     u3811:
  3228  049B  2CA5               	goto	l2813
  3229  049C                     u3810:
  3230  049C                     l2809:
  3231  049C  3000               	movlw	0
  3232  049D  00A3               	movwf	?___fladd+3
  3233  049E  3000               	movlw	0
  3234  049F  00A2               	movwf	?___fladd+2
  3235  04A0  3000               	movlw	0
  3236  04A1  00A1               	movwf	?___fladd+1
  3237  04A2  3000               	movlw	0
  3238  04A3  00A0               	movwf	?___fladd
  3239  04A4  2E10               	goto	l602
  3240  04A5                     l2813:
  3241  04A5  0824               	movf	___fladd@a,w
  3242  04A6  07A0               	addwf	___fladd@b,f
  3243  04A7  0825               	movf	___fladd@a+1,w
  3244  04A8  1103               	clrz
  3245  04A9  1803               	skipnc
  3246  04AA  3E01               	addlw	1
  3247  04AB  1903               	skipnz
  3248  04AC  2CAE               	goto	u3821
  3249  04AD  07A1               	addwf	___fladd@b+1,f
  3250  04AE                     u3821:
  3251  04AE  0826               	movf	___fladd@a+2,w
  3252  04AF  1103               	clrz
  3253  04B0  1803               	skipnc
  3254  04B1  3E01               	addlw	1
  3255  04B2  1903               	skipnz
  3256  04B3  2CB5               	goto	u3822
  3257  04B4  07A2               	addwf	___fladd@b+2,f
  3258  04B5                     u3822:
  3259  04B5  0827               	movf	___fladd@a+3,w
  3260  04B6  1103               	clrz
  3261  04B7  1803               	skipnc
  3262  04B8  3E01               	addlw	1
  3263  04B9  1903               	skipnz
  3264  04BA  2CBC               	goto	u3823
  3265  04BB  07A3               	addwf	___fladd@b+3,f
  3266  04BC                     u3823:
  3267  04BC                     l2815:
  3268  04BC  1C23               	btfss	___fladd@b+3,0
  3269  04BD  2CBF               	goto	u3831
  3270  04BE  2CC0               	goto	u3830
  3271  04BF                     u3831:
  3272  04BF  2D96               	goto	l2865
  3273  04C0                     u3830:
  3274  04C0                     l2817:
  3275  04C0  1C33               	btfss	___fladd@grs,0
  3276  04C1  2CC3               	goto	u3841
  3277  04C2  2CC4               	goto	u3840
  3278  04C3                     u3841:
  3279  04C3  2CCD               	goto	l2821
  3280  04C4                     u3840:
  3281  04C4                     l2819:
  3282  04C4  0833               	movf	___fladd@grs,w
  3283  04C5  00A8               	movwf	??___fladd
  3284  04C6  1003               	clrc
  3285  04C7  0C28               	rrf	??___fladd,w
  3286  04C8  3801               	iorlw	1
  3287  04C9  00A9               	movwf	??___fladd+1
  3288  04CA  0829               	movf	??___fladd+1,w
  3289  04CB  00B3               	movwf	___fladd@grs
  3290  04CC  2CCF               	goto	l2823
  3291  04CD                     l2821:
  3292  04CD  1003               	clrc
  3293  04CE  0CB3               	rrf	___fladd@grs,f
  3294  04CF                     l2823:
  3295  04CF  1C20               	btfss	___fladd@b,0
  3296  04D0  2CD2               	goto	u3851
  3297  04D1  2CD3               	goto	u3850
  3298  04D2                     u3851:
  3299  04D2  2CD4               	goto	l2827
  3300  04D3                     u3850:
  3301  04D3                     l2825:
  3302  04D3  17B3               	bsf	___fladd@grs,7
  3303  04D4                     l2827:
  3304  04D4  3001               	movlw	1
  3305  04D5  00A8               	movwf	??___fladd
  3306  04D6                     u3865:
  3307  04D6  0D23               	rlf	___fladd@b+3,w
  3308  04D7  0CA3               	rrf	___fladd@b+3,f
  3309  04D8  0CA2               	rrf	___fladd@b+2,f
  3310  04D9  0CA1               	rrf	___fladd@b+1,f
  3311  04DA  0CA0               	rrf	___fladd@b,f
  3312  04DB  0BA8               	decfsz	??___fladd& (0+127),f
  3313  04DC  2CD6               	goto	u3865
  3314  04DD                     l2829:
  3315  04DD  3001               	movlw	1
  3316  04DE  00A8               	movwf	??___fladd
  3317  04DF  0828               	movf	??___fladd,w
  3318  04E0  07B2               	addwf	___fladd@bexp,f
  3319  04E1  2D96               	goto	l2865
  3320  04E2                     l2831:
  3321  04E2  0823               	movf	___fladd@b+3,w
  3322  04E3  3A80               	xorlw	128
  3323  04E4  00FF               	movwf	btemp+1
  3324  04E5  0827               	movf	___fladd@a+3,w
  3325  04E6  3A80               	xorlw	128
  3326  04E7  027F               	subwf	btemp+1,w
  3327  04E8  1D03               	skipz
  3328  04E9  2CF4               	goto	u3873
  3329  04EA  0826               	movf	___fladd@a+2,w
  3330  04EB  0222               	subwf	___fladd@b+2,w
  3331  04EC  1D03               	skipz
  3332  04ED  2CF4               	goto	u3873
  3333  04EE  0825               	movf	___fladd@a+1,w
  3334  04EF  0221               	subwf	___fladd@b+1,w
  3335  04F0  1D03               	skipz
  3336  04F1  2CF4               	goto	u3873
  3337  04F2  0824               	movf	___fladd@a,w
  3338  04F3  0220               	subwf	___fladd@b,w
  3339  04F4                     u3873:
  3340  04F4  1803               	skipnc
  3341  04F5  2CF7               	goto	u3871
  3342  04F6  2CF8               	goto	u3870
  3343  04F7                     u3871:
  3344  04F7  2D50               	goto	l2841
  3345  04F8                     u3870:
  3346  04F8                     l2833:
  3347  04F8  30FF               	movlw	255
  3348  04F9  00A8               	movwf	??___fladd
  3349  04FA  30FF               	movlw	255
  3350  04FB  00A9               	movwf	??___fladd+1
  3351  04FC  30FF               	movlw	255
  3352  04FD  00AA               	movwf	??___fladd+2
  3353  04FE  30FF               	movlw	255
  3354  04FF  00AB               	movwf	??___fladd+3
  3355  0500  0824               	movf	___fladd@a,w
  3356  0501  00AC               	movwf	??___fladd+4
  3357  0502  0825               	movf	___fladd@a+1,w
  3358  0503  00AD               	movwf	??___fladd+5
  3359  0504  0826               	movf	___fladd@a+2,w
  3360  0505  00AE               	movwf	??___fladd+6
  3361  0506  0827               	movf	___fladd@a+3,w
  3362  0507  00AF               	movwf	??___fladd+7
  3363  0508  0820               	movf	___fladd@b,w
  3364  0509  02AC               	subwf	??___fladd+4,f
  3365  050A  0821               	movf	___fladd@b+1,w
  3366  050B  1C03               	skipc
  3367  050C  0F21               	incfsz	___fladd@b+1,w
  3368  050D  2D0F               	goto	u3881
  3369  050E  2D10               	goto	u3882
  3370  050F                     u3881:
  3371  050F  02AD               	subwf	??___fladd+5,f
  3372  0510                     u3882:
  3373  0510  0822               	movf	___fladd@b+2,w
  3374  0511  1C03               	skipc
  3375  0512  0F22               	incfsz	___fladd@b+2,w
  3376  0513  2D15               	goto	u3883
  3377  0514  2D16               	goto	u3884
  3378  0515                     u3883:
  3379  0515  02AE               	subwf	??___fladd+6,f
  3380  0516                     u3884:
  3381  0516  0823               	movf	___fladd@b+3,w
  3382  0517  1C03               	skipc
  3383  0518  0F23               	incfsz	___fladd@b+3,w
  3384  0519  2D1B               	goto	u3885
  3385  051A  2D1C               	goto	u3886
  3386  051B                     u3885:
  3387  051B  02AF               	subwf	??___fladd+7,f
  3388  051C                     u3886:
  3389  051C  082C               	movf	??___fladd+4,w
  3390  051D  07A8               	addwf	??___fladd,f
  3391  051E  082D               	movf	??___fladd+5,w
  3392  051F  1803               	skipnc
  3393  0520  0F2D               	incfsz	??___fladd+5,w
  3394  0521  2D23               	goto	u3890
  3395  0522  2D24               	goto	u3891
  3396  0523                     u3890:
  3397  0523  07A9               	addwf	??___fladd+1,f
  3398  0524                     u3891:
  3399  0524  082E               	movf	??___fladd+6,w
  3400  0525  1803               	skipnc
  3401  0526  0F2E               	incfsz	??___fladd+6,w
  3402  0527  2D29               	goto	u3892
  3403  0528  2D2A               	goto	u3893
  3404  0529                     u3892:
  3405  0529  07AA               	addwf	??___fladd+2,f
  3406  052A                     u3893:
  3407  052A  082F               	movf	??___fladd+7,w
  3408  052B  1803               	skipnc
  3409  052C  0A2F               	incf	??___fladd+7,w
  3410  052D  07AB               	addwf	??___fladd+3,f
  3411  052E  082B               	movf	??___fladd+3,w
  3412  052F  00A3               	movwf	___fladd@b+3
  3413  0530  082A               	movf	??___fladd+2,w
  3414  0531  00A2               	movwf	___fladd@b+2
  3415  0532  0829               	movf	??___fladd+1,w
  3416  0533  00A1               	movwf	___fladd@b+1
  3417  0534  0828               	movf	??___fladd,w
  3418  0535  00A0               	movwf	___fladd@b
  3419  0536                     l2835:
  3420  0536  3080               	movlw	128
  3421  0537  00A8               	movwf	??___fladd
  3422  0538  0828               	movf	??___fladd,w
  3423  0539  06B0               	xorwf	___fladd@signs,f
  3424  053A  09B3               	comf	___fladd@grs,f
  3425  053B  0AB3               	incf	___fladd@grs,f
  3426  053C                     l2837:
  3427  053C  0833               	movf	___fladd@grs,w
  3428  053D  1D03               	btfss	3,2
  3429  053E  2D40               	goto	u3901
  3430  053F  2D41               	goto	u3900
  3431  0540                     u3901:
  3432  0540  2D5E               	goto	l610
  3433  0541                     u3900:
  3434  0541                     l2839:
  3435  0541  3001               	movlw	1
  3436  0542  07A0               	addwf	___fladd@b,f
  3437  0543  3000               	movlw	0
  3438  0544  1803               	skipnc
  3439  0545  3001               	movlw	1
  3440  0546  07A1               	addwf	___fladd@b+1,f
  3441  0547  3000               	movlw	0
  3442  0548  1803               	skipnc
  3443  0549  3001               	movlw	1
  3444  054A  07A2               	addwf	___fladd@b+2,f
  3445  054B  3000               	movlw	0
  3446  054C  1803               	skipnc
  3447  054D  3001               	movlw	1
  3448  054E  07A3               	addwf	___fladd@b+3,f
  3449  054F  2D5E               	goto	l610
  3450  0550                     l2841:
  3451  0550  0824               	movf	___fladd@a,w
  3452  0551  02A0               	subwf	___fladd@b,f
  3453  0552  0825               	movf	___fladd@a+1,w
  3454  0553  1C03               	skipc
  3455  0554  0F25               	incfsz	___fladd@a+1,w
  3456  0555  02A1               	subwf	___fladd@b+1,f
  3457  0556  0826               	movf	___fladd@a+2,w
  3458  0557  1C03               	skipc
  3459  0558  0F26               	incfsz	___fladd@a+2,w
  3460  0559  02A2               	subwf	___fladd@b+2,f
  3461  055A  0827               	movf	___fladd@a+3,w
  3462  055B  1C03               	skipc
  3463  055C  0F27               	incfsz	___fladd@a+3,w
  3464  055D  02A3               	subwf	___fladd@b+3,f
  3465  055E                     l610:
  3466  055E  0823               	movf	___fladd@b+3,w
  3467  055F  0422               	iorwf	___fladd@b+2,w
  3468  0560  0421               	iorwf	___fladd@b+1,w
  3469  0561  0420               	iorwf	___fladd@b,w
  3470  0562  1D03               	skipz
  3471  0563  2D65               	goto	u3911
  3472  0564  2D66               	goto	u3910
  3473  0565                     u3911:
  3474  0565  2D92               	goto	l2863
  3475  0566                     u3910:
  3476  0566                     l2843:
  3477  0566  0833               	movf	___fladd@grs,w
  3478  0567  1D03               	btfss	3,2
  3479  0568  2D6A               	goto	u3921
  3480  0569  2D6B               	goto	u3920
  3481  056A                     u3921:
  3482  056A  2D92               	goto	l2863
  3483  056B                     u3920:
  3484  056B                     l2845:
  3485  056B  3000               	movlw	0
  3486  056C  00A3               	movwf	?___fladd+3
  3487  056D  3000               	movlw	0
  3488  056E  00A2               	movwf	?___fladd+2
  3489  056F  3000               	movlw	0
  3490  0570  00A1               	movwf	?___fladd+1
  3491  0571  3000               	movlw	0
  3492  0572  00A0               	movwf	?___fladd
  3493  0573  2E10               	goto	l602
  3494  0574                     l2849:
  3495  0574  3001               	movlw	1
  3496  0575  00A8               	movwf	??___fladd
  3497  0576                     u3935:
  3498  0576  1003               	clrc
  3499  0577  0DA0               	rlf	___fladd@b,f
  3500  0578  0DA1               	rlf	___fladd@b+1,f
  3501  0579  0DA2               	rlf	___fladd@b+2,f
  3502  057A  0DA3               	rlf	___fladd@b+3,f
  3503  057B  0BA8               	decfsz	??___fladd,f
  3504  057C  2D76               	goto	u3935
  3505  057D                     l2851:
  3506  057D  1FB3               	btfss	___fladd@grs,7
  3507  057E  2D80               	goto	u3941
  3508  057F  2D81               	goto	u3940
  3509  0580                     u3941:
  3510  0580  2D82               	goto	l614
  3511  0581                     u3940:
  3512  0581                     l2853:
  3513  0581  1420               	bsf	___fladd@b,0
  3514  0582                     l614:
  3515  0582  1C33               	btfss	___fladd@grs,0
  3516  0583  2D85               	goto	u3951
  3517  0584  2D86               	goto	u3950
  3518  0585                     u3951:
  3519  0585  2D89               	goto	l2857
  3520  0586                     u3950:
  3521  0586                     l2855:
  3522  0586  1403               	setc
  3523  0587  0DB3               	rlf	___fladd@grs,f
  3524  0588  2D8B               	goto	l2859
  3525  0589                     l2857:
  3526  0589  1003               	clrc
  3527  058A  0DB3               	rlf	___fladd@grs,f
  3528  058B                     l2859:
  3529  058B  0832               	movf	___fladd@bexp,w
  3530  058C  1903               	btfsc	3,2
  3531  058D  2D8F               	goto	u3961
  3532  058E  2D90               	goto	u3960
  3533  058F                     u3961:
  3534  058F  2D92               	goto	l2863
  3535  0590                     u3960:
  3536  0590                     l2861:
  3537  0590  3001               	movlw	1
  3538  0591  02B2               	subwf	___fladd@bexp,f
  3539  0592                     l2863:
  3540  0592  1FA2               	btfss	___fladd@b+2,7
  3541  0593  2D95               	goto	u3971
  3542  0594  2D96               	goto	u3970
  3543  0595                     u3971:
  3544  0595  2D74               	goto	l2849
  3545  0596                     u3970:
  3546  0596                     l2865:
  3547  0596  01B1               	clrf	___fladd@aexp
  3548  0597                     l2867:
  3549  0597  1FB3               	btfss	___fladd@grs,7
  3550  0598  2D9A               	goto	u3981
  3551  0599  2D9B               	goto	u3980
  3552  059A                     u3981:
  3553  059A  2DA9               	goto	l2875
  3554  059B                     u3980:
  3555  059B                     l2869:
  3556  059B  0833               	movf	___fladd@grs,w
  3557  059C  397F               	andlw	127
  3558  059D  1903               	btfsc	3,2
  3559  059E  2DA0               	goto	u3991
  3560  059F  2DA1               	goto	u3990
  3561  05A0                     u3991:
  3562  05A0  2DA4               	goto	l620
  3563  05A1                     u3990:
  3564  05A1                     l2871:
  3565  05A1  01B1               	clrf	___fladd@aexp
  3566  05A2  0AB1               	incf	___fladd@aexp,f
  3567  05A3  2DA9               	goto	l2875
  3568  05A4                     l620:
  3569  05A4  1C20               	btfss	___fladd@b,0
  3570  05A5  2DA7               	goto	u4001
  3571  05A6  2DA8               	goto	u4000
  3572  05A7                     u4001:
  3573  05A7  2DA9               	goto	l2875
  3574  05A8                     u4000:
  3575  05A8  2DA1               	goto	l2871
  3576  05A9                     l2875:
  3577  05A9  0831               	movf	___fladd@aexp,w
  3578  05AA  1903               	btfsc	3,2
  3579  05AB  2DAD               	goto	u4011
  3580  05AC  2DAE               	goto	u4010
  3581  05AD                     u4011:
  3582  05AD  2DE2               	goto	l623
  3583  05AE                     u4010:
  3584  05AE                     l2877:
  3585  05AE  3001               	movlw	1
  3586  05AF  07A0               	addwf	___fladd@b,f
  3587  05B0  3000               	movlw	0
  3588  05B1  1803               	skipnc
  3589  05B2  3001               	movlw	1
  3590  05B3  07A1               	addwf	___fladd@b+1,f
  3591  05B4  3000               	movlw	0
  3592  05B5  1803               	skipnc
  3593  05B6  3001               	movlw	1
  3594  05B7  07A2               	addwf	___fladd@b+2,f
  3595  05B8  3000               	movlw	0
  3596  05B9  1803               	skipnc
  3597  05BA  3001               	movlw	1
  3598  05BB  07A3               	addwf	___fladd@b+3,f
  3599  05BC                     l2879:
  3600  05BC  1C23               	btfss	___fladd@b+3,0
  3601  05BD  2DBF               	goto	u4021
  3602  05BE  2DC0               	goto	u4020
  3603  05BF                     u4021:
  3604  05BF  2DE2               	goto	l623
  3605  05C0                     u4020:
  3606  05C0                     l2881:
  3607  05C0  0820               	movf	___fladd@b,w
  3608  05C1  00A8               	movwf	??___fladd
  3609  05C2  0821               	movf	___fladd@b+1,w
  3610  05C3  00A9               	movwf	??___fladd+1
  3611  05C4  0822               	movf	___fladd@b+2,w
  3612  05C5  00AA               	movwf	??___fladd+2
  3613  05C6  0823               	movf	___fladd@b+3,w
  3614  05C7  00AB               	movwf	??___fladd+3
  3615  05C8  3001               	movlw	1
  3616  05C9  00AC               	movwf	??___fladd+4
  3617  05CA                     u4035:
  3618  05CA  0D2B               	rlf	??___fladd+3,w
  3619  05CB  0CAB               	rrf	??___fladd+3,f
  3620  05CC  0CAA               	rrf	??___fladd+2,f
  3621  05CD  0CA9               	rrf	??___fladd+1,f
  3622  05CE  0CA8               	rrf	??___fladd,f
  3623  05CF                     u4030:
  3624  05CF  0BAC               	decfsz	??___fladd+4,f
  3625  05D0  2DCA               	goto	u4035
  3626  05D1  082B               	movf	??___fladd+3,w
  3627  05D2  00A3               	movwf	___fladd@b+3
  3628  05D3  082A               	movf	??___fladd+2,w
  3629  05D4  00A2               	movwf	___fladd@b+2
  3630  05D5  0829               	movf	??___fladd+1,w
  3631  05D6  00A1               	movwf	___fladd@b+1
  3632  05D7  0828               	movf	??___fladd,w
  3633  05D8  00A0               	movwf	___fladd@b
  3634  05D9  0A32               	incf	___fladd@bexp,w
  3635  05DA  1903               	btfsc	3,2
  3636  05DB  2DDD               	goto	u4041
  3637  05DC  2DDE               	goto	u4040
  3638  05DD                     u4041:
  3639  05DD  2DE2               	goto	l623
  3640  05DE                     u4040:
  3641  05DE                     l2883:
  3642  05DE  3001               	movlw	1
  3643  05DF  00A8               	movwf	??___fladd
  3644  05E0  0828               	movf	??___fladd,w
  3645  05E1  07B2               	addwf	___fladd@bexp,f
  3646  05E2                     l623:
  3647  05E2  0A32               	incf	___fladd@bexp,w
  3648  05E3  1903               	btfsc	3,2
  3649  05E4  2DE6               	goto	u4051
  3650  05E5  2DE7               	goto	u4050
  3651  05E6                     u4051:
  3652  05E6  2DEC               	goto	l2887
  3653  05E7                     u4050:
  3654  05E7                     l2885:
  3655  05E7  0832               	movf	___fladd@bexp,w
  3656  05E8  1D03               	btfss	3,2
  3657  05E9  2DEB               	goto	u4061
  3658  05EA  2DEC               	goto	u4060
  3659  05EB                     u4061:
  3660  05EB  2DFA               	goto	l2893
  3661  05EC                     u4060:
  3662  05EC                     l2887:
  3663  05EC  3000               	movlw	0
  3664  05ED  00A3               	movwf	___fladd@b+3
  3665  05EE  3000               	movlw	0
  3666  05EF  00A2               	movwf	___fladd@b+2
  3667  05F0  3000               	movlw	0
  3668  05F1  00A1               	movwf	___fladd@b+1
  3669  05F2  3000               	movlw	0
  3670  05F3  00A0               	movwf	___fladd@b
  3671  05F4                     l2889:
  3672  05F4  0832               	movf	___fladd@bexp,w
  3673  05F5  1D03               	btfss	3,2
  3674  05F6  2DF8               	goto	u4071
  3675  05F7  2DF9               	goto	u4070
  3676  05F8                     u4071:
  3677  05F8  2DFA               	goto	l2893
  3678  05F9                     u4070:
  3679  05F9                     l2891:
  3680  05F9  01B0               	clrf	___fladd@signs
  3681  05FA                     l2893:
  3682  05FA  1C32               	btfss	___fladd@bexp,0
  3683  05FB  2DFD               	goto	u4081
  3684  05FC  2DFE               	goto	u4080
  3685  05FD                     u4081:
  3686  05FD  2E00               	goto	l2897
  3687  05FE                     u4080:
  3688  05FE                     l2895:
  3689  05FE  17A2               	bsf	___fladd@b+2,7
  3690  05FF  2E04               	goto	l631
  3691  0600                     l2897:
  3692  0600  307F               	movlw	127
  3693  0601  00A8               	movwf	??___fladd
  3694  0602  0828               	movf	??___fladd,w
  3695  0603  05A2               	andwf	___fladd@b+2,f
  3696  0604                     l631:
  3697  0604  0832               	movf	___fladd@bexp,w
  3698  0605  00A8               	movwf	??___fladd
  3699  0606  1003               	clrc
  3700  0607  0C28               	rrf	??___fladd,w
  3701  0608  00A9               	movwf	??___fladd+1
  3702  0609  0829               	movf	??___fladd+1,w
  3703  060A  00A3               	movwf	___fladd@b+3
  3704  060B                     l2899:
  3705  060B  1FB0               	btfss	___fladd@signs,7
  3706  060C  2E0E               	goto	u4091
  3707  060D  2E0F               	goto	u4090
  3708  060E                     u4091:
  3709  060E  2E10               	goto	l632
  3710  060F                     u4090:
  3711  060F                     l2901:
  3712  060F  17A3               	bsf	___fladd@b+3,7
  3713  0610                     l632:
  3714  0610                     l602:
  3715  0610  0008               	return
  3716  0611                     __end_of___fladd:
  3717                           
  3718                           	psect	text11
  3719  0028                     __ptext11:	
  3720 ;; *************** function ___flmul *****************
  3721 ;; Defined at:
  3722 ;;		line 8 in file "C:\Program Files\Microchip\xc8\v2.32\pic\sources\c90\common\sprcmul.c"
  3723 ;; Parameters:    Size  Location     Type
  3724 ;;  b               4   14[BANK0 ] unsigned char 
  3725 ;;  a               4   18[BANK0 ] unsigned char 
  3726 ;; Auto vars:     Size  Location     Type
  3727 ;;  prod            4   34[BANK0 ] struct .
  3728 ;;  grs             4   29[BANK0 ] unsigned long 
  3729 ;;  temp            2   38[BANK0 ] struct .
  3730 ;;  bexp            1   33[BANK0 ] unsigned char 
  3731 ;;  aexp            1   28[BANK0 ] unsigned char 
  3732 ;;  sign            1   27[BANK0 ] unsigned char 
  3733 ;; Return value:  Size  Location     Type
  3734 ;;                  4   14[BANK0 ] unsigned char 
  3735 ;; Registers used:
  3736 ;;		wreg, status,2, status,0, btemp+1, pclath, cstack
  3737 ;; Tracked objects:
  3738 ;;		On entry : 0/0
  3739 ;;		On exit  : 0/0
  3740 ;;		Unchanged: 0/0
  3741 ;; Data sizes:     COMMON   BANK0   BANK1   BANK3   BANK2
  3742 ;;      Params:         0       8       0       0       0
  3743 ;;      Locals:         0      13       0       0       0
  3744 ;;      Temps:          0       5       0       0       0
  3745 ;;      Totals:         0      26       0       0       0
  3746 ;;Total ram usage:       26 bytes
  3747 ;; Hardware stack levels used: 1
  3748 ;; Hardware stack levels required when called: 2
  3749 ;; This function calls:
  3750 ;;		__Umul8_16
  3751 ;; This function is called by:
  3752 ;;		_main
  3753 ;; This function uses a non-reentrant model
  3754 ;;
  3755                           
  3756                           
  3757                           ;psect for function ___flmul
  3758  0028                     ___flmul:
  3759  0028                     l3077:	
  3760                           ;incstack = 0
  3761                           ; Regs used in ___flmul: [wreg+status,2+status,0+btemp+1+pclath+cstack]
  3762                           
  3763  0028  1283               	bcf	3,5	;RP0=0, select bank0
  3764  0029  1303               	bcf	3,6	;RP1=0, select bank0
  3765  002A  0831               	movf	___flmul@b+3,w
  3766  002B  3980               	andlw	128
  3767  002C  00B6               	movwf	??___flmul
  3768  002D  0836               	movf	??___flmul,w
  3769  002E  00BB               	movwf	___flmul@sign
  3770  002F                     l3079:
  3771  002F  0831               	movf	___flmul@b+3,w
  3772  0030  00B6               	movwf	??___flmul
  3773  0031  0736               	addwf	??___flmul,w
  3774  0032  00B7               	movwf	??___flmul+1
  3775  0033  0837               	movf	??___flmul+1,w
  3776  0034  00C1               	movwf	___flmul@bexp
  3777  0035                     l3081:
  3778  0035  1FB0               	btfss	___flmul@b+2,7
  3779  0036  2838               	goto	u4381
  3780  0037  2839               	goto	u4380
  3781  0038                     u4381:
  3782  0038  283A               	goto	l3085
  3783  0039                     u4380:
  3784  0039                     l3083:
  3785  0039  1441               	bsf	___flmul@bexp,0
  3786  003A                     l3085:
  3787  003A  0841               	movf	___flmul@bexp,w
  3788  003B  1903               	btfsc	3,2
  3789  003C  283E               	goto	u4391
  3790  003D  283F               	goto	u4390
  3791  003E                     u4391:
  3792  003E  284E               	goto	l3093
  3793  003F                     u4390:
  3794  003F                     l3087:
  3795  003F  0A41               	incf	___flmul@bexp,w
  3796  0040  1D03               	btfss	3,2
  3797  0041  2843               	goto	u4401
  3798  0042  2844               	goto	u4400
  3799  0043                     u4401:
  3800  0043  284C               	goto	l3091
  3801  0044                     u4400:
  3802  0044                     l3089:
  3803  0044  3000               	movlw	0
  3804  0045  00B1               	movwf	___flmul@b+3
  3805  0046  3000               	movlw	0
  3806  0047  00B0               	movwf	___flmul@b+2
  3807  0048  3000               	movlw	0
  3808  0049  00AF               	movwf	___flmul@b+1
  3809  004A  3000               	movlw	0
  3810  004B  00AE               	movwf	___flmul@b
  3811  004C                     l3091:
  3812  004C  17B0               	bsf	___flmul@b+2,7
  3813  004D  2856               	goto	l3095
  3814  004E                     l3093:
  3815  004E  3000               	movlw	0
  3816  004F  00B1               	movwf	___flmul@b+3
  3817  0050  3000               	movlw	0
  3818  0051  00B0               	movwf	___flmul@b+2
  3819  0052  3000               	movlw	0
  3820  0053  00AF               	movwf	___flmul@b+1
  3821  0054  3000               	movlw	0
  3822  0055  00AE               	movwf	___flmul@b
  3823  0056                     l3095:
  3824  0056  0835               	movf	___flmul@a+3,w
  3825  0057  3980               	andlw	128
  3826  0058  00B6               	movwf	??___flmul
  3827  0059  0836               	movf	??___flmul,w
  3828  005A  06BB               	xorwf	___flmul@sign,f
  3829  005B                     l3097:
  3830  005B  0835               	movf	___flmul@a+3,w
  3831  005C  00B6               	movwf	??___flmul
  3832  005D  0736               	addwf	??___flmul,w
  3833  005E  00B7               	movwf	??___flmul+1
  3834  005F  0837               	movf	??___flmul+1,w
  3835  0060  00BC               	movwf	___flmul@aexp
  3836  0061                     l3099:
  3837  0061  1FB4               	btfss	___flmul@a+2,7
  3838  0062  2864               	goto	u4411
  3839  0063  2865               	goto	u4410
  3840  0064                     u4411:
  3841  0064  2866               	goto	l3103
  3842  0065                     u4410:
  3843  0065                     l3101:
  3844  0065  143C               	bsf	___flmul@aexp,0
  3845  0066                     l3103:
  3846  0066  083C               	movf	___flmul@aexp,w
  3847  0067  1903               	btfsc	3,2
  3848  0068  286A               	goto	u4421
  3849  0069  286B               	goto	u4420
  3850  006A                     u4421:
  3851  006A  287A               	goto	l3111
  3852  006B                     u4420:
  3853  006B                     l3105:
  3854  006B  0A3C               	incf	___flmul@aexp,w
  3855  006C  1D03               	btfss	3,2
  3856  006D  286F               	goto	u4431
  3857  006E  2870               	goto	u4430
  3858  006F                     u4431:
  3859  006F  2878               	goto	l3109
  3860  0070                     u4430:
  3861  0070                     l3107:
  3862  0070  3000               	movlw	0
  3863  0071  00B5               	movwf	___flmul@a+3
  3864  0072  3000               	movlw	0
  3865  0073  00B4               	movwf	___flmul@a+2
  3866  0074  3000               	movlw	0
  3867  0075  00B3               	movwf	___flmul@a+1
  3868  0076  3000               	movlw	0
  3869  0077  00B2               	movwf	___flmul@a
  3870  0078                     l3109:
  3871  0078  17B4               	bsf	___flmul@a+2,7
  3872  0079  2882               	goto	l3113
  3873  007A                     l3111:
  3874  007A  3000               	movlw	0
  3875  007B  00B5               	movwf	___flmul@a+3
  3876  007C  3000               	movlw	0
  3877  007D  00B4               	movwf	___flmul@a+2
  3878  007E  3000               	movlw	0
  3879  007F  00B3               	movwf	___flmul@a+1
  3880  0080  3000               	movlw	0
  3881  0081  00B2               	movwf	___flmul@a
  3882  0082                     l3113:
  3883  0082  083C               	movf	___flmul@aexp,w
  3884  0083  1903               	btfsc	3,2
  3885  0084  2886               	goto	u4441
  3886  0085  2887               	goto	u4440
  3887  0086                     u4441:
  3888  0086  288C               	goto	l3117
  3889  0087                     u4440:
  3890  0087                     l3115:
  3891  0087  0841               	movf	___flmul@bexp,w
  3892  0088  1D03               	btfss	3,2
  3893  0089  288B               	goto	u4451
  3894  008A  288C               	goto	u4450
  3895  008B                     u4451:
  3896  008B  2895               	goto	l3121
  3897  008C                     u4450:
  3898  008C                     l3117:
  3899  008C  3000               	movlw	0
  3900  008D  00B1               	movwf	?___flmul+3
  3901  008E  3000               	movlw	0
  3902  008F  00B0               	movwf	?___flmul+2
  3903  0090  3000               	movlw	0
  3904  0091  00AF               	movwf	?___flmul+1
  3905  0092  3000               	movlw	0
  3906  0093  00AE               	movwf	?___flmul
  3907  0094  2B88               	goto	l685
  3908  0095                     l3121:
  3909  0095  082E               	movf	___flmul@b,w
  3910  0096  00B6               	movwf	??___flmul
  3911  0097  0836               	movf	??___flmul,w
  3912  0098  00F4               	movwf	__Umul8_16@multiplicand
  3913  0099  0834               	movf	___flmul@a+2,w
  3914  009A  120A  158A  22CD  120A  118A  	fcall	__Umul8_16
  3915  009F  0875               	movf	?__Umul8_16+1,w
  3916  00A0  1283               	bcf	3,5	;RP0=0, select bank0
  3917  00A1  1303               	bcf	3,6	;RP1=0, select bank0
  3918  00A2  00C7               	movwf	___flmul@temp+1
  3919  00A3  0874               	movf	?__Umul8_16,w
  3920  00A4  00C6               	movwf	___flmul@temp
  3921  00A5                     l3123:
  3922  00A5  0846               	movf	___flmul@temp,w
  3923  00A6  00B6               	movwf	??___flmul
  3924  00A7  01B7               	clrf	??___flmul+1
  3925  00A8  01B8               	clrf	??___flmul+2
  3926  00A9  01B9               	clrf	??___flmul+3
  3927  00AA  0839               	movf	??___flmul+3,w
  3928  00AB  00C0               	movwf	___flmul@grs+3
  3929  00AC  0838               	movf	??___flmul+2,w
  3930  00AD  00BF               	movwf	___flmul@grs+2
  3931  00AE  0837               	movf	??___flmul+1,w
  3932  00AF  00BE               	movwf	___flmul@grs+1
  3933  00B0  0836               	movf	??___flmul,w
  3934  00B1  00BD               	movwf	___flmul@grs
  3935  00B2                     l3125:
  3936  00B2  0847               	movf	___flmul@temp+1,w
  3937  00B3  00B6               	movwf	??___flmul
  3938  00B4  01B7               	clrf	??___flmul+1
  3939  00B5  01B8               	clrf	??___flmul+2
  3940  00B6  01B9               	clrf	??___flmul+3
  3941  00B7  0839               	movf	??___flmul+3,w
  3942  00B8  00C5               	movwf	___flmul@prod+3
  3943  00B9  0838               	movf	??___flmul+2,w
  3944  00BA  00C4               	movwf	___flmul@prod+2
  3945  00BB  0837               	movf	??___flmul+1,w
  3946  00BC  00C3               	movwf	___flmul@prod+1
  3947  00BD  0836               	movf	??___flmul,w
  3948  00BE  00C2               	movwf	___flmul@prod
  3949  00BF  082F               	movf	___flmul@b+1,w
  3950  00C0  00B6               	movwf	??___flmul
  3951  00C1  0836               	movf	??___flmul,w
  3952  00C2  00F4               	movwf	__Umul8_16@multiplicand
  3953  00C3  0833               	movf	___flmul@a+1,w
  3954  00C4  120A  158A  22CD  120A  118A  	fcall	__Umul8_16
  3955  00C9  0875               	movf	?__Umul8_16+1,w
  3956  00CA  1283               	bcf	3,5	;RP0=0, select bank0
  3957  00CB  1303               	bcf	3,6	;RP1=0, select bank0
  3958  00CC  00C7               	movwf	___flmul@temp+1
  3959  00CD  0874               	movf	?__Umul8_16,w
  3960  00CE  00C6               	movwf	___flmul@temp
  3961  00CF                     l3127:
  3962  00CF  0846               	movf	___flmul@temp,w
  3963  00D0  00B6               	movwf	??___flmul
  3964  00D1  01B7               	clrf	??___flmul+1
  3965  00D2  01B8               	clrf	??___flmul+2
  3966  00D3  01B9               	clrf	??___flmul+3
  3967  00D4  0836               	movf	??___flmul,w
  3968  00D5  07BD               	addwf	___flmul@grs,f
  3969  00D6  0837               	movf	??___flmul+1,w
  3970  00D7  1103               	clrz
  3971  00D8  1803               	skipnc
  3972  00D9  3E01               	addlw	1
  3973  00DA  1903               	skipnz
  3974  00DB  28DD               	goto	u4461
  3975  00DC  07BE               	addwf	___flmul@grs+1,f
  3976  00DD                     u4461:
  3977  00DD  0838               	movf	??___flmul+2,w
  3978  00DE  1103               	clrz
  3979  00DF  1803               	skipnc
  3980  00E0  3E01               	addlw	1
  3981  00E1  1903               	skipnz
  3982  00E2  28E4               	goto	u4462
  3983  00E3  07BF               	addwf	___flmul@grs+2,f
  3984  00E4                     u4462:
  3985  00E4  0839               	movf	??___flmul+3,w
  3986  00E5  1103               	clrz
  3987  00E6  1803               	skipnc
  3988  00E7  3E01               	addlw	1
  3989  00E8  1903               	skipnz
  3990  00E9  28EB               	goto	u4463
  3991  00EA  07C0               	addwf	___flmul@grs+3,f
  3992  00EB                     u4463:
  3993  00EB                     l3129:
  3994  00EB  0847               	movf	___flmul@temp+1,w
  3995  00EC  00B6               	movwf	??___flmul
  3996  00ED  01B7               	clrf	??___flmul+1
  3997  00EE  01B8               	clrf	??___flmul+2
  3998  00EF  01B9               	clrf	??___flmul+3
  3999  00F0  0836               	movf	??___flmul,w
  4000  00F1  07C2               	addwf	___flmul@prod,f
  4001  00F2  0837               	movf	??___flmul+1,w
  4002  00F3  1103               	clrz
  4003  00F4  1803               	skipnc
  4004  00F5  3E01               	addlw	1
  4005  00F6  1903               	skipnz
  4006  00F7  28F9               	goto	u4471
  4007  00F8  07C3               	addwf	___flmul@prod+1,f
  4008  00F9                     u4471:
  4009  00F9  0838               	movf	??___flmul+2,w
  4010  00FA  1103               	clrz
  4011  00FB  1803               	skipnc
  4012  00FC  3E01               	addlw	1
  4013  00FD  1903               	skipnz
  4014  00FE  2900               	goto	u4472
  4015  00FF  07C4               	addwf	___flmul@prod+2,f
  4016  0100                     u4472:
  4017  0100  0839               	movf	??___flmul+3,w
  4018  0101  1103               	clrz
  4019  0102  1803               	skipnc
  4020  0103  3E01               	addlw	1
  4021  0104  1903               	skipnz
  4022  0105  2907               	goto	u4473
  4023  0106  07C5               	addwf	___flmul@prod+3,f
  4024  0107                     u4473:
  4025  0107  0830               	movf	___flmul@b+2,w
  4026  0108  00B6               	movwf	??___flmul
  4027  0109  0836               	movf	??___flmul,w
  4028  010A  00F4               	movwf	__Umul8_16@multiplicand
  4029  010B  0832               	movf	___flmul@a,w
  4030  010C  120A  158A  22CD  120A  118A  	fcall	__Umul8_16
  4031  0111  0875               	movf	?__Umul8_16+1,w
  4032  0112  1283               	bcf	3,5	;RP0=0, select bank0
  4033  0113  1303               	bcf	3,6	;RP1=0, select bank0
  4034  0114  00C7               	movwf	___flmul@temp+1
  4035  0115  0874               	movf	?__Umul8_16,w
  4036  0116  00C6               	movwf	___flmul@temp
  4037  0117                     l3131:
  4038  0117  0846               	movf	___flmul@temp,w
  4039  0118  00B6               	movwf	??___flmul
  4040  0119  01B7               	clrf	??___flmul+1
  4041  011A  01B8               	clrf	??___flmul+2
  4042  011B  01B9               	clrf	??___flmul+3
  4043  011C  0836               	movf	??___flmul,w
  4044  011D  07BD               	addwf	___flmul@grs,f
  4045  011E  0837               	movf	??___flmul+1,w
  4046  011F  1103               	clrz
  4047  0120  1803               	skipnc
  4048  0121  3E01               	addlw	1
  4049  0122  1903               	skipnz
  4050  0123  2925               	goto	u4481
  4051  0124  07BE               	addwf	___flmul@grs+1,f
  4052  0125                     u4481:
  4053  0125  0838               	movf	??___flmul+2,w
  4054  0126  1103               	clrz
  4055  0127  1803               	skipnc
  4056  0128  3E01               	addlw	1
  4057  0129  1903               	skipnz
  4058  012A  292C               	goto	u4482
  4059  012B  07BF               	addwf	___flmul@grs+2,f
  4060  012C                     u4482:
  4061  012C  0839               	movf	??___flmul+3,w
  4062  012D  1103               	clrz
  4063  012E  1803               	skipnc
  4064  012F  3E01               	addlw	1
  4065  0130  1903               	skipnz
  4066  0131  2933               	goto	u4483
  4067  0132  07C0               	addwf	___flmul@grs+3,f
  4068  0133                     u4483:
  4069  0133                     l3133:
  4070  0133  0847               	movf	___flmul@temp+1,w
  4071  0134  00B6               	movwf	??___flmul
  4072  0135  01B7               	clrf	??___flmul+1
  4073  0136  01B8               	clrf	??___flmul+2
  4074  0137  01B9               	clrf	??___flmul+3
  4075  0138  0836               	movf	??___flmul,w
  4076  0139  07C2               	addwf	___flmul@prod,f
  4077  013A  0837               	movf	??___flmul+1,w
  4078  013B  1103               	clrz
  4079  013C  1803               	skipnc
  4080  013D  3E01               	addlw	1
  4081  013E  1903               	skipnz
  4082  013F  2941               	goto	u4491
  4083  0140  07C3               	addwf	___flmul@prod+1,f
  4084  0141                     u4491:
  4085  0141  0838               	movf	??___flmul+2,w
  4086  0142  1103               	clrz
  4087  0143  1803               	skipnc
  4088  0144  3E01               	addlw	1
  4089  0145  1903               	skipnz
  4090  0146  2948               	goto	u4492
  4091  0147  07C4               	addwf	___flmul@prod+2,f
  4092  0148                     u4492:
  4093  0148  0839               	movf	??___flmul+3,w
  4094  0149  1103               	clrz
  4095  014A  1803               	skipnc
  4096  014B  3E01               	addlw	1
  4097  014C  1903               	skipnz
  4098  014D  294F               	goto	u4493
  4099  014E  07C5               	addwf	___flmul@prod+3,f
  4100  014F                     u4493:
  4101  014F                     l3135:
  4102  014F  3008               	movlw	8
  4103  0150  00B6               	movwf	??___flmul
  4104  0151                     u4505:
  4105  0151  1003               	clrc
  4106  0152  0DBD               	rlf	___flmul@grs,f
  4107  0153  0DBE               	rlf	___flmul@grs+1,f
  4108  0154  0DBF               	rlf	___flmul@grs+2,f
  4109  0155  0DC0               	rlf	___flmul@grs+3,f
  4110  0156  0BB6               	decfsz	??___flmul,f
  4111  0157  2951               	goto	u4505
  4112  0158                     l3137:
  4113  0158  082F               	movf	___flmul@b+1,w
  4114  0159  00B6               	movwf	??___flmul
  4115  015A  0836               	movf	??___flmul,w
  4116  015B  00F4               	movwf	__Umul8_16@multiplicand
  4117  015C  0832               	movf	___flmul@a,w
  4118  015D  120A  158A  22CD  120A  118A  	fcall	__Umul8_16
  4119  0162  0875               	movf	?__Umul8_16+1,w
  4120  0163  1283               	bcf	3,5	;RP0=0, select bank0
  4121  0164  1303               	bcf	3,6	;RP1=0, select bank0
  4122  0165  00C7               	movwf	___flmul@temp+1
  4123  0166  0874               	movf	?__Umul8_16,w
  4124  0167  00C6               	movwf	___flmul@temp
  4125  0168                     l3139:
  4126  0168  0846               	movf	___flmul@temp,w
  4127  0169  00B6               	movwf	??___flmul
  4128  016A  0847               	movf	___flmul@temp+1,w
  4129  016B  00B7               	movwf	??___flmul+1
  4130  016C  01B8               	clrf	??___flmul+2
  4131  016D  01B9               	clrf	??___flmul+3
  4132  016E  0836               	movf	??___flmul,w
  4133  016F  07BD               	addwf	___flmul@grs,f
  4134  0170  0837               	movf	??___flmul+1,w
  4135  0171  1103               	clrz
  4136  0172  1803               	skipnc
  4137  0173  3E01               	addlw	1
  4138  0174  1903               	skipnz
  4139  0175  2977               	goto	u4511
  4140  0176  07BE               	addwf	___flmul@grs+1,f
  4141  0177                     u4511:
  4142  0177  0838               	movf	??___flmul+2,w
  4143  0178  1103               	clrz
  4144  0179  1803               	skipnc
  4145  017A  3E01               	addlw	1
  4146  017B  1903               	skipnz
  4147  017C  297E               	goto	u4512
  4148  017D  07BF               	addwf	___flmul@grs+2,f
  4149  017E                     u4512:
  4150  017E  0839               	movf	??___flmul+3,w
  4151  017F  1103               	clrz
  4152  0180  1803               	skipnc
  4153  0181  3E01               	addlw	1
  4154  0182  1903               	skipnz
  4155  0183  2985               	goto	u4513
  4156  0184  07C0               	addwf	___flmul@grs+3,f
  4157  0185                     u4513:
  4158  0185                     l3141:
  4159  0185  082E               	movf	___flmul@b,w
  4160  0186  00B6               	movwf	??___flmul
  4161  0187  0836               	movf	??___flmul,w
  4162  0188  00F4               	movwf	__Umul8_16@multiplicand
  4163  0189  0833               	movf	___flmul@a+1,w
  4164  018A  120A  158A  22CD  120A  118A  	fcall	__Umul8_16
  4165  018F  0875               	movf	?__Umul8_16+1,w
  4166  0190  1283               	bcf	3,5	;RP0=0, select bank0
  4167  0191  1303               	bcf	3,6	;RP1=0, select bank0
  4168  0192  00C7               	movwf	___flmul@temp+1
  4169  0193  0874               	movf	?__Umul8_16,w
  4170  0194  00C6               	movwf	___flmul@temp
  4171  0195                     l3143:
  4172  0195  0846               	movf	___flmul@temp,w
  4173  0196  00B6               	movwf	??___flmul
  4174  0197  0847               	movf	___flmul@temp+1,w
  4175  0198  00B7               	movwf	??___flmul+1
  4176  0199  01B8               	clrf	??___flmul+2
  4177  019A  01B9               	clrf	??___flmul+3
  4178  019B  0836               	movf	??___flmul,w
  4179  019C  07BD               	addwf	___flmul@grs,f
  4180  019D  0837               	movf	??___flmul+1,w
  4181  019E  1103               	clrz
  4182  019F  1803               	skipnc
  4183  01A0  3E01               	addlw	1
  4184  01A1  1903               	skipnz
  4185  01A2  29A4               	goto	u4521
  4186  01A3  07BE               	addwf	___flmul@grs+1,f
  4187  01A4                     u4521:
  4188  01A4  0838               	movf	??___flmul+2,w
  4189  01A5  1103               	clrz
  4190  01A6  1803               	skipnc
  4191  01A7  3E01               	addlw	1
  4192  01A8  1903               	skipnz
  4193  01A9  29AB               	goto	u4522
  4194  01AA  07BF               	addwf	___flmul@grs+2,f
  4195  01AB                     u4522:
  4196  01AB  0839               	movf	??___flmul+3,w
  4197  01AC  1103               	clrz
  4198  01AD  1803               	skipnc
  4199  01AE  3E01               	addlw	1
  4200  01AF  1903               	skipnz
  4201  01B0  29B2               	goto	u4523
  4202  01B1  07C0               	addwf	___flmul@grs+3,f
  4203  01B2                     u4523:
  4204  01B2                     l3145:
  4205  01B2  3008               	movlw	8
  4206  01B3  00B6               	movwf	??___flmul
  4207  01B4                     u4535:
  4208  01B4  1003               	clrc
  4209  01B5  0DBD               	rlf	___flmul@grs,f
  4210  01B6  0DBE               	rlf	___flmul@grs+1,f
  4211  01B7  0DBF               	rlf	___flmul@grs+2,f
  4212  01B8  0DC0               	rlf	___flmul@grs+3,f
  4213  01B9  0BB6               	decfsz	??___flmul,f
  4214  01BA  29B4               	goto	u4535
  4215  01BB  082E               	movf	___flmul@b,w
  4216  01BC  00B6               	movwf	??___flmul
  4217  01BD  0836               	movf	??___flmul,w
  4218  01BE  00F4               	movwf	__Umul8_16@multiplicand
  4219  01BF  0832               	movf	___flmul@a,w
  4220  01C0  120A  158A  22CD  120A  118A  	fcall	__Umul8_16
  4221  01C5  0875               	movf	?__Umul8_16+1,w
  4222  01C6  1283               	bcf	3,5	;RP0=0, select bank0
  4223  01C7  1303               	bcf	3,6	;RP1=0, select bank0
  4224  01C8  00C7               	movwf	___flmul@temp+1
  4225  01C9  0874               	movf	?__Umul8_16,w
  4226  01CA  00C6               	movwf	___flmul@temp
  4227  01CB                     l3147:
  4228  01CB  0846               	movf	___flmul@temp,w
  4229  01CC  00B6               	movwf	??___flmul
  4230  01CD  0847               	movf	___flmul@temp+1,w
  4231  01CE  00B7               	movwf	??___flmul+1
  4232  01CF  01B8               	clrf	??___flmul+2
  4233  01D0  01B9               	clrf	??___flmul+3
  4234  01D1  0836               	movf	??___flmul,w
  4235  01D2  07BD               	addwf	___flmul@grs,f
  4236  01D3  0837               	movf	??___flmul+1,w
  4237  01D4  1103               	clrz
  4238  01D5  1803               	skipnc
  4239  01D6  3E01               	addlw	1
  4240  01D7  1903               	skipnz
  4241  01D8  29DA               	goto	u4541
  4242  01D9  07BE               	addwf	___flmul@grs+1,f
  4243  01DA                     u4541:
  4244  01DA  0838               	movf	??___flmul+2,w
  4245  01DB  1103               	clrz
  4246  01DC  1803               	skipnc
  4247  01DD  3E01               	addlw	1
  4248  01DE  1903               	skipnz
  4249  01DF  29E1               	goto	u4542
  4250  01E0  07BF               	addwf	___flmul@grs+2,f
  4251  01E1                     u4542:
  4252  01E1  0839               	movf	??___flmul+3,w
  4253  01E2  1103               	clrz
  4254  01E3  1803               	skipnc
  4255  01E4  3E01               	addlw	1
  4256  01E5  1903               	skipnz
  4257  01E6  29E8               	goto	u4543
  4258  01E7  07C0               	addwf	___flmul@grs+3,f
  4259  01E8                     u4543:
  4260  01E8                     l3149:
  4261  01E8  082F               	movf	___flmul@b+1,w
  4262  01E9  00B6               	movwf	??___flmul
  4263  01EA  0836               	movf	??___flmul,w
  4264  01EB  00F4               	movwf	__Umul8_16@multiplicand
  4265  01EC  0834               	movf	___flmul@a+2,w
  4266  01ED  120A  158A  22CD  120A  118A  	fcall	__Umul8_16
  4267  01F2  0875               	movf	?__Umul8_16+1,w
  4268  01F3  1283               	bcf	3,5	;RP0=0, select bank0
  4269  01F4  1303               	bcf	3,6	;RP1=0, select bank0
  4270  01F5  00C7               	movwf	___flmul@temp+1
  4271  01F6  0874               	movf	?__Umul8_16,w
  4272  01F7  00C6               	movwf	___flmul@temp
  4273  01F8  0846               	movf	___flmul@temp,w
  4274  01F9  00B6               	movwf	??___flmul
  4275  01FA  0847               	movf	___flmul@temp+1,w
  4276  01FB  00B7               	movwf	??___flmul+1
  4277  01FC  01B8               	clrf	??___flmul+2
  4278  01FD  01B9               	clrf	??___flmul+3
  4279  01FE  0836               	movf	??___flmul,w
  4280  01FF  07C2               	addwf	___flmul@prod,f
  4281  0200  0837               	movf	??___flmul+1,w
  4282  0201  1103               	clrz
  4283  0202  1803               	skipnc
  4284  0203  3E01               	addlw	1
  4285  0204  1903               	skipnz
  4286  0205  2A07               	goto	u4551
  4287  0206  07C3               	addwf	___flmul@prod+1,f
  4288  0207                     u4551:
  4289  0207  0838               	movf	??___flmul+2,w
  4290  0208  1103               	clrz
  4291  0209  1803               	skipnc
  4292  020A  3E01               	addlw	1
  4293  020B  1903               	skipnz
  4294  020C  2A0E               	goto	u4552
  4295  020D  07C4               	addwf	___flmul@prod+2,f
  4296  020E                     u4552:
  4297  020E  0839               	movf	??___flmul+3,w
  4298  020F  1103               	clrz
  4299  0210  1803               	skipnc
  4300  0211  3E01               	addlw	1
  4301  0212  1903               	skipnz
  4302  0213  2A15               	goto	u4553
  4303  0214  07C5               	addwf	___flmul@prod+3,f
  4304  0215                     u4553:
  4305  0215                     l3151:
  4306  0215  0830               	movf	___flmul@b+2,w
  4307  0216  00B6               	movwf	??___flmul
  4308  0217  0836               	movf	??___flmul,w
  4309  0218  00F4               	movwf	__Umul8_16@multiplicand
  4310  0219  0833               	movf	___flmul@a+1,w
  4311  021A  120A  158A  22CD  120A  118A  	fcall	__Umul8_16
  4312  021F  0875               	movf	?__Umul8_16+1,w
  4313  0220  1283               	bcf	3,5	;RP0=0, select bank0
  4314  0221  1303               	bcf	3,6	;RP1=0, select bank0
  4315  0222  00C7               	movwf	___flmul@temp+1
  4316  0223  0874               	movf	?__Umul8_16,w
  4317  0224  00C6               	movwf	___flmul@temp
  4318  0225                     l3153:
  4319  0225  0846               	movf	___flmul@temp,w
  4320  0226  00B6               	movwf	??___flmul
  4321  0227  0847               	movf	___flmul@temp+1,w
  4322  0228  00B7               	movwf	??___flmul+1
  4323  0229  01B8               	clrf	??___flmul+2
  4324  022A  01B9               	clrf	??___flmul+3
  4325  022B  0836               	movf	??___flmul,w
  4326  022C  07C2               	addwf	___flmul@prod,f
  4327  022D  0837               	movf	??___flmul+1,w
  4328  022E  1103               	clrz
  4329  022F  1803               	skipnc
  4330  0230  3E01               	addlw	1
  4331  0231  1903               	skipnz
  4332  0232  2A34               	goto	u4561
  4333  0233  07C3               	addwf	___flmul@prod+1,f
  4334  0234                     u4561:
  4335  0234  0838               	movf	??___flmul+2,w
  4336  0235  1103               	clrz
  4337  0236  1803               	skipnc
  4338  0237  3E01               	addlw	1
  4339  0238  1903               	skipnz
  4340  0239  2A3B               	goto	u4562
  4341  023A  07C4               	addwf	___flmul@prod+2,f
  4342  023B                     u4562:
  4343  023B  0839               	movf	??___flmul+3,w
  4344  023C  1103               	clrz
  4345  023D  1803               	skipnc
  4346  023E  3E01               	addlw	1
  4347  023F  1903               	skipnz
  4348  0240  2A42               	goto	u4563
  4349  0241  07C5               	addwf	___flmul@prod+3,f
  4350  0242                     u4563:
  4351  0242  0830               	movf	___flmul@b+2,w
  4352  0243  00B6               	movwf	??___flmul
  4353  0244  0836               	movf	??___flmul,w
  4354  0245  00F4               	movwf	__Umul8_16@multiplicand
  4355  0246  0834               	movf	___flmul@a+2,w
  4356  0247  120A  158A  22CD  120A  118A  	fcall	__Umul8_16
  4357  024C  0875               	movf	?__Umul8_16+1,w
  4358  024D  1283               	bcf	3,5	;RP0=0, select bank0
  4359  024E  1303               	bcf	3,6	;RP1=0, select bank0
  4360  024F  00C7               	movwf	___flmul@temp+1
  4361  0250  0874               	movf	?__Umul8_16,w
  4362  0251  00C6               	movwf	___flmul@temp
  4363  0252                     l3155:
  4364  0252  0846               	movf	___flmul@temp,w
  4365  0253  00B6               	movwf	??___flmul
  4366  0254  0847               	movf	___flmul@temp+1,w
  4367  0255  00B7               	movwf	??___flmul+1
  4368  0256  01B8               	clrf	??___flmul+2
  4369  0257  01B9               	clrf	??___flmul+3
  4370  0258  3008               	movlw	8
  4371  0259                     u4575:
  4372  0259  1003               	clrc
  4373  025A  0DB6               	rlf	??___flmul,f
  4374  025B  0DB7               	rlf	??___flmul+1,f
  4375  025C  0DB8               	rlf	??___flmul+2,f
  4376  025D  0DB9               	rlf	??___flmul+3,f
  4377  025E                     u4570:
  4378  025E  3EFF               	addlw	-1
  4379  025F  1D03               	skipz
  4380  0260  2A59               	goto	u4575
  4381  0261  0836               	movf	??___flmul,w
  4382  0262  07C2               	addwf	___flmul@prod,f
  4383  0263  0837               	movf	??___flmul+1,w
  4384  0264  1103               	clrz
  4385  0265  1803               	skipnc
  4386  0266  3E01               	addlw	1
  4387  0267  1903               	skipnz
  4388  0268  2A6A               	goto	u4581
  4389  0269  07C3               	addwf	___flmul@prod+1,f
  4390  026A                     u4581:
  4391  026A  0838               	movf	??___flmul+2,w
  4392  026B  1103               	clrz
  4393  026C  1803               	skipnc
  4394  026D  3E01               	addlw	1
  4395  026E  1903               	skipnz
  4396  026F  2A71               	goto	u4582
  4397  0270  07C4               	addwf	___flmul@prod+2,f
  4398  0271                     u4582:
  4399  0271  0839               	movf	??___flmul+3,w
  4400  0272  1103               	clrz
  4401  0273  1803               	skipnc
  4402  0274  3E01               	addlw	1
  4403  0275  1903               	skipnz
  4404  0276  2A78               	goto	u4583
  4405  0277  07C5               	addwf	___flmul@prod+3,f
  4406  0278                     u4583:
  4407  0278                     l3157:
  4408  0278  083D               	movf	___flmul@grs,w
  4409  0279  00B6               	movwf	??___flmul
  4410  027A  083E               	movf	___flmul@grs+1,w
  4411  027B  00B7               	movwf	??___flmul+1
  4412  027C  083F               	movf	___flmul@grs+2,w
  4413  027D  00B8               	movwf	??___flmul+2
  4414  027E  0840               	movf	___flmul@grs+3,w
  4415  027F  00B9               	movwf	??___flmul+3
  4416  0280  3018               	movlw	24
  4417  0281                     u4595:
  4418  0281  1003               	clrc
  4419  0282  0CB9               	rrf	??___flmul+3,f
  4420  0283  0CB8               	rrf	??___flmul+2,f
  4421  0284  0CB7               	rrf	??___flmul+1,f
  4422  0285  0CB6               	rrf	??___flmul,f
  4423  0286                     u4590:
  4424  0286  3EFF               	addlw	-1
  4425  0287  1D03               	skipz
  4426  0288  2A81               	goto	u4595
  4427  0289  0836               	movf	??___flmul,w
  4428  028A  07C2               	addwf	___flmul@prod,f
  4429  028B  0837               	movf	??___flmul+1,w
  4430  028C  1103               	clrz
  4431  028D  1803               	skipnc
  4432  028E  3E01               	addlw	1
  4433  028F  1903               	skipnz
  4434  0290  2A92               	goto	u4601
  4435  0291  07C3               	addwf	___flmul@prod+1,f
  4436  0292                     u4601:
  4437  0292  0838               	movf	??___flmul+2,w
  4438  0293  1103               	clrz
  4439  0294  1803               	skipnc
  4440  0295  3E01               	addlw	1
  4441  0296  1903               	skipnz
  4442  0297  2A99               	goto	u4602
  4443  0298  07C4               	addwf	___flmul@prod+2,f
  4444  0299                     u4602:
  4445  0299  0839               	movf	??___flmul+3,w
  4446  029A  1103               	clrz
  4447  029B  1803               	skipnc
  4448  029C  3E01               	addlw	1
  4449  029D  1903               	skipnz
  4450  029E  2AA0               	goto	u4603
  4451  029F  07C5               	addwf	___flmul@prod+3,f
  4452  02A0                     u4603:
  4453  02A0                     l3159:
  4454  02A0  3008               	movlw	8
  4455  02A1  00B6               	movwf	??___flmul
  4456  02A2                     u4615:
  4457  02A2  1003               	clrc
  4458  02A3  0DBD               	rlf	___flmul@grs,f
  4459  02A4  0DBE               	rlf	___flmul@grs+1,f
  4460  02A5  0DBF               	rlf	___flmul@grs+2,f
  4461  02A6  0DC0               	rlf	___flmul@grs+3,f
  4462  02A7  0BB6               	decfsz	??___flmul,f
  4463  02A8  2AA2               	goto	u4615
  4464  02A9                     l3161:
  4465  02A9  0841               	movf	___flmul@bexp,w
  4466  02AA  073C               	addwf	___flmul@aexp,w
  4467  02AB  00B6               	movwf	??___flmul
  4468  02AC  01B7               	clrf	??___flmul+1
  4469  02AD  0DB7               	rlf	??___flmul+1,f
  4470  02AE  0836               	movf	??___flmul,w
  4471  02AF  3E82               	addlw	130
  4472  02B0  00C6               	movwf	___flmul@temp
  4473  02B1  0837               	movf	??___flmul+1,w
  4474  02B2  1803               	skipnc
  4475  02B3  3E01               	addlw	1
  4476  02B4  3EFF               	addlw	255
  4477  02B5  00C7               	movwf	___flmul@temp+1
  4478  02B6  2AD4               	goto	l3173
  4479  02B7                     l3163:
  4480  02B7  3001               	movlw	1
  4481  02B8  00B6               	movwf	??___flmul
  4482  02B9                     u4625:
  4483  02B9  1003               	clrc
  4484  02BA  0DC2               	rlf	___flmul@prod,f
  4485  02BB  0DC3               	rlf	___flmul@prod+1,f
  4486  02BC  0DC4               	rlf	___flmul@prod+2,f
  4487  02BD  0DC5               	rlf	___flmul@prod+3,f
  4488  02BE  0BB6               	decfsz	??___flmul,f
  4489  02BF  2AB9               	goto	u4625
  4490  02C0                     l3165:
  4491  02C0  1FC0               	btfss	___flmul@grs+3,7
  4492  02C1  2AC3               	goto	u4631
  4493  02C2  2AC4               	goto	u4630
  4494  02C3                     u4631:
  4495  02C3  2AC5               	goto	l3169
  4496  02C4                     u4630:
  4497  02C4                     l3167:
  4498  02C4  1442               	bsf	___flmul@prod,0
  4499  02C5                     l3169:
  4500  02C5  3001               	movlw	1
  4501  02C6  00B6               	movwf	??___flmul
  4502  02C7                     u4645:
  4503  02C7  1003               	clrc
  4504  02C8  0DBD               	rlf	___flmul@grs,f
  4505  02C9  0DBE               	rlf	___flmul@grs+1,f
  4506  02CA  0DBF               	rlf	___flmul@grs+2,f
  4507  02CB  0DC0               	rlf	___flmul@grs+3,f
  4508  02CC  0BB6               	decfsz	??___flmul,f
  4509  02CD  2AC7               	goto	u4645
  4510  02CE                     l3171:
  4511  02CE  30FF               	movlw	255
  4512  02CF  07C6               	addwf	___flmul@temp,f
  4513  02D0  1803               	skipnc
  4514  02D1  0AC7               	incf	___flmul@temp+1,f
  4515  02D2  30FF               	movlw	255
  4516  02D3  07C7               	addwf	___flmul@temp+1,f
  4517  02D4                     l3173:
  4518  02D4  1FC4               	btfss	___flmul@prod+2,7
  4519  02D5  2AD7               	goto	u4651
  4520  02D6  2AD8               	goto	u4650
  4521  02D7                     u4651:
  4522  02D7  2AB7               	goto	l3163
  4523  02D8                     u4650:
  4524  02D8                     l3175:
  4525  02D8  01BC               	clrf	___flmul@aexp
  4526  02D9                     l3177:
  4527  02D9  1FC0               	btfss	___flmul@grs+3,7
  4528  02DA  2ADC               	goto	u4661
  4529  02DB  2ADD               	goto	u4660
  4530  02DC                     u4661:
  4531  02DC  2AF9               	goto	l3185
  4532  02DD                     u4660:
  4533  02DD                     l3179:
  4534  02DD  30FF               	movlw	255
  4535  02DE  053D               	andwf	___flmul@grs,w
  4536  02DF  00B6               	movwf	??___flmul
  4537  02E0  30FF               	movlw	255
  4538  02E1  053E               	andwf	___flmul@grs+1,w
  4539  02E2  00B7               	movwf	??___flmul+1
  4540  02E3  30FF               	movlw	255
  4541  02E4  053F               	andwf	___flmul@grs+2,w
  4542  02E5  00B8               	movwf	??___flmul+2
  4543  02E6  307F               	movlw	127
  4544  02E7  0540               	andwf	___flmul@grs+3,w
  4545  02E8  00B9               	movwf	??___flmul+3
  4546  02E9  0839               	movf	??___flmul+3,w
  4547  02EA  0438               	iorwf	??___flmul+2,w
  4548  02EB  0437               	iorwf	??___flmul+1,w
  4549  02EC  0436               	iorwf	??___flmul,w
  4550  02ED  1903               	skipnz
  4551  02EE  2AF0               	goto	u4671
  4552  02EF  2AF1               	goto	u4670
  4553  02F0                     u4671:
  4554  02F0  2AF4               	goto	l691
  4555  02F1                     u4670:
  4556  02F1                     l3181:
  4557  02F1  01BC               	clrf	___flmul@aexp
  4558  02F2  0ABC               	incf	___flmul@aexp,f
  4559  02F3  2AF9               	goto	l3185
  4560  02F4                     l691:
  4561  02F4  1C42               	btfss	___flmul@prod,0
  4562  02F5  2AF7               	goto	u4681
  4563  02F6  2AF8               	goto	u4680
  4564  02F7                     u4681:
  4565  02F7  2AF9               	goto	l3185
  4566  02F8                     u4680:
  4567  02F8  2AF1               	goto	l3181
  4568  02F9                     l3185:
  4569  02F9  083C               	movf	___flmul@aexp,w
  4570  02FA  1903               	btfsc	3,2
  4571  02FB  2AFD               	goto	u4691
  4572  02FC  2AFE               	goto	u4690
  4573  02FD                     u4691:
  4574  02FD  2B2F               	goto	l3195
  4575  02FE                     u4690:
  4576  02FE                     l3187:
  4577  02FE  3001               	movlw	1
  4578  02FF  07C2               	addwf	___flmul@prod,f
  4579  0300  3000               	movlw	0
  4580  0301  1803               	skipnc
  4581  0302  3001               	movlw	1
  4582  0303  07C3               	addwf	___flmul@prod+1,f
  4583  0304  3000               	movlw	0
  4584  0305  1803               	skipnc
  4585  0306  3001               	movlw	1
  4586  0307  07C4               	addwf	___flmul@prod+2,f
  4587  0308  3000               	movlw	0
  4588  0309  1803               	skipnc
  4589  030A  3001               	movlw	1
  4590  030B  07C5               	addwf	___flmul@prod+3,f
  4591  030C                     l3189:
  4592  030C  1C45               	btfss	___flmul@prod+3,0
  4593  030D  2B0F               	goto	u4701
  4594  030E  2B10               	goto	u4700
  4595  030F                     u4701:
  4596  030F  2B2F               	goto	l3195
  4597  0310                     u4700:
  4598  0310                     l3191:
  4599  0310  0842               	movf	___flmul@prod,w
  4600  0311  00B6               	movwf	??___flmul
  4601  0312  0843               	movf	___flmul@prod+1,w
  4602  0313  00B7               	movwf	??___flmul+1
  4603  0314  0844               	movf	___flmul@prod+2,w
  4604  0315  00B8               	movwf	??___flmul+2
  4605  0316  0845               	movf	___flmul@prod+3,w
  4606  0317  00B9               	movwf	??___flmul+3
  4607  0318  3001               	movlw	1
  4608  0319  00BA               	movwf	??___flmul+4
  4609  031A                     u4715:
  4610  031A  0D39               	rlf	??___flmul+3,w
  4611  031B  0CB9               	rrf	??___flmul+3,f
  4612  031C  0CB8               	rrf	??___flmul+2,f
  4613  031D  0CB7               	rrf	??___flmul+1,f
  4614  031E  0CB6               	rrf	??___flmul,f
  4615  031F                     u4710:
  4616  031F  0BBA               	decfsz	??___flmul+4,f
  4617  0320  2B1A               	goto	u4715
  4618  0321  0839               	movf	??___flmul+3,w
  4619  0322  00C5               	movwf	___flmul@prod+3
  4620  0323  0838               	movf	??___flmul+2,w
  4621  0324  00C4               	movwf	___flmul@prod+2
  4622  0325  0837               	movf	??___flmul+1,w
  4623  0326  00C3               	movwf	___flmul@prod+1
  4624  0327  0836               	movf	??___flmul,w
  4625  0328  00C2               	movwf	___flmul@prod
  4626  0329                     l3193:
  4627  0329  3001               	movlw	1
  4628  032A  07C6               	addwf	___flmul@temp,f
  4629  032B  1803               	skipnc
  4630  032C  0AC7               	incf	___flmul@temp+1,f
  4631  032D  3000               	movlw	0
  4632  032E  07C7               	addwf	___flmul@temp+1,f
  4633  032F                     l3195:
  4634  032F  0847               	movf	___flmul@temp+1,w
  4635  0330  3A80               	xorlw	128
  4636  0331  00FF               	movwf	btemp+1
  4637  0332  3080               	movlw	128
  4638  0333  027F               	subwf	btemp+1,w
  4639  0334  1D03               	skipz
  4640  0335  2B38               	goto	u4725
  4641  0336  30FF               	movlw	255
  4642  0337  0246               	subwf	___flmul@temp,w
  4643  0338                     u4725:
  4644  0338  1C03               	skipc
  4645  0339  2B3B               	goto	u4721
  4646  033A  2B3C               	goto	u4720
  4647  033B                     u4721:
  4648  033B  2B47               	goto	l3199
  4649  033C                     u4720:
  4650  033C                     l3197:
  4651  033C  307F               	movlw	127
  4652  033D  1283               	bcf	3,5	;RP0=0, select bank0
  4653  033E  1303               	bcf	3,6	;RP1=0, select bank0
  4654  033F  00C5               	movwf	___flmul@prod+3
  4655  0340  3080               	movlw	128
  4656  0341  00C4               	movwf	___flmul@prod+2
  4657  0342  3000               	movlw	0
  4658  0343  00C3               	movwf	___flmul@prod+1
  4659  0344  3000               	movlw	0
  4660  0345  00C2               	movwf	___flmul@prod
  4661  0346  2B7C               	goto	l697
  4662  0347                     l3199:
  4663  0347  1283               	bcf	3,5	;RP0=0, select bank0
  4664  0348  1303               	bcf	3,6	;RP1=0, select bank0
  4665  0349  0847               	movf	___flmul@temp+1,w
  4666  034A  3A80               	xorlw	128
  4667  034B  00FF               	movwf	btemp+1
  4668  034C  3080               	movlw	128
  4669  034D  027F               	subwf	btemp+1,w
  4670  034E  1D03               	skipz
  4671  034F  2B52               	goto	u4735
  4672  0350  3001               	movlw	1
  4673  0351  0246               	subwf	___flmul@temp,w
  4674  0352                     u4735:
  4675  0352  1803               	skipnc
  4676  0353  2B55               	goto	u4731
  4677  0354  2B56               	goto	u4730
  4678  0355                     u4731:
  4679  0355  2B62               	goto	l3205
  4680  0356                     u4730:
  4681  0356                     l3201:
  4682  0356  3000               	movlw	0
  4683  0357  1283               	bcf	3,5	;RP0=0, select bank0
  4684  0358  1303               	bcf	3,6	;RP1=0, select bank0
  4685  0359  00C5               	movwf	___flmul@prod+3
  4686  035A  3000               	movlw	0
  4687  035B  00C4               	movwf	___flmul@prod+2
  4688  035C  3000               	movlw	0
  4689  035D  00C3               	movwf	___flmul@prod+1
  4690  035E  3000               	movlw	0
  4691  035F  00C2               	movwf	___flmul@prod
  4692  0360                     l3203:
  4693  0360  01BB               	clrf	___flmul@sign
  4694  0361  2B7C               	goto	l697
  4695  0362                     l3205:
  4696  0362  1283               	bcf	3,5	;RP0=0, select bank0
  4697  0363  1303               	bcf	3,6	;RP1=0, select bank0
  4698  0364  0846               	movf	___flmul@temp,w
  4699  0365  00B6               	movwf	??___flmul
  4700  0366  0836               	movf	??___flmul,w
  4701  0367  00C1               	movwf	___flmul@bexp
  4702  0368  30FF               	movlw	255
  4703  0369  05C2               	andwf	___flmul@prod,f
  4704  036A  30FF               	movlw	255
  4705  036B  05C3               	andwf	___flmul@prod+1,f
  4706  036C  307F               	movlw	127
  4707  036D  05C4               	andwf	___flmul@prod+2,f
  4708  036E  3000               	movlw	0
  4709  036F  05C5               	andwf	___flmul@prod+3,f
  4710  0370                     l3207:
  4711  0370  1C41               	btfss	___flmul@bexp,0
  4712  0371  2B73               	goto	u4741
  4713  0372  2B74               	goto	u4740
  4714  0373                     u4741:
  4715  0373  2B75               	goto	l3211
  4716  0374                     u4740:
  4717  0374                     l3209:
  4718  0374  17C4               	bsf	___flmul@prod+2,7
  4719  0375                     l3211:
  4720  0375  0841               	movf	___flmul@bexp,w
  4721  0376  00B6               	movwf	??___flmul
  4722  0377  1003               	clrc
  4723  0378  0C36               	rrf	??___flmul,w
  4724  0379  00B7               	movwf	??___flmul+1
  4725  037A  0837               	movf	??___flmul+1,w
  4726  037B  00C5               	movwf	___flmul@prod+3
  4727  037C                     l697:
  4728  037C  083B               	movf	___flmul@sign,w
  4729  037D  00B6               	movwf	??___flmul
  4730  037E  0836               	movf	??___flmul,w
  4731  037F  04C5               	iorwf	___flmul@prod+3,f
  4732  0380                     l3213:
  4733  0380  0845               	movf	___flmul@prod+3,w
  4734  0381  00B1               	movwf	?___flmul+3
  4735  0382  0844               	movf	___flmul@prod+2,w
  4736  0383  00B0               	movwf	?___flmul+2
  4737  0384  0843               	movf	___flmul@prod+1,w
  4738  0385  00AF               	movwf	?___flmul+1
  4739  0386  0842               	movf	___flmul@prod,w
  4740  0387  00AE               	movwf	?___flmul
  4741  0388                     l685:
  4742  0388  0008               	return
  4743  0389                     __end_of___flmul:
  4744                           
  4745                           	psect	text12
  4746  0ACD                     __ptext12:	
  4747 ;; *************** function __Umul8_16 *****************
  4748 ;; Defined at:
  4749 ;;		line 4 in file "C:\Program Files\Microchip\xc8\v2.32\pic\sources\c90\common\Umul8_16.c"
  4750 ;; Parameters:    Size  Location     Type
  4751 ;;  multiplier      1    wreg     unsigned char 
  4752 ;;  multiplicand    1    4[COMMON] unsigned char 
  4753 ;; Auto vars:     Size  Location     Type
  4754 ;;  multiplier      1    6[BANK0 ] unsigned char 
  4755 ;;  word_mpld       2    4[BANK0 ] unsigned int 
  4756 ;;  product         2    2[BANK0 ] unsigned int 
  4757 ;; Return value:  Size  Location     Type
  4758 ;;                  2    4[COMMON] unsigned int 
  4759 ;; Registers used:
  4760 ;;		wreg, status,2, status,0
  4761 ;; Tracked objects:
  4762 ;;		On entry : 0/0
  4763 ;;		On exit  : 0/0
  4764 ;;		Unchanged: 0/0
  4765 ;; Data sizes:     COMMON   BANK0   BANK1   BANK3   BANK2
  4766 ;;      Params:         2       0       0       0       0
  4767 ;;      Locals:         0       5       0       0       0
  4768 ;;      Temps:          0       2       0       0       0
  4769 ;;      Totals:         2       7       0       0       0
  4770 ;;Total ram usage:        9 bytes
  4771 ;; Hardware stack levels used: 1
  4772 ;; Hardware stack levels required when called: 1
  4773 ;; This function calls:
  4774 ;;		Nothing
  4775 ;; This function is called by:
  4776 ;;		___flmul
  4777 ;; This function uses a non-reentrant model
  4778 ;;
  4779                           
  4780                           
  4781                           ;psect for function __Umul8_16
  4782  0ACD                     __Umul8_16:
  4783                           
  4784                           ;incstack = 0
  4785                           ; Regs used in __Umul8_16: [wreg+status,2+status,0]
  4786                           ;__Umul8_16@multiplier stored from wreg
  4787  0ACD  1283               	bcf	3,5	;RP0=0, select bank0
  4788  0ACE  1303               	bcf	3,6	;RP1=0, select bank0
  4789  0ACF  00A6               	movwf	__Umul8_16@multiplier
  4790  0AD0                     l2903:
  4791  0AD0  01A2               	clrf	__Umul8_16@product
  4792  0AD1  01A3               	clrf	__Umul8_16@product+1
  4793  0AD2                     l2905:
  4794  0AD2  0874               	movf	__Umul8_16@multiplicand,w
  4795  0AD3  00A0               	movwf	??__Umul8_16
  4796  0AD4  01A1               	clrf	??__Umul8_16+1
  4797  0AD5  0820               	movf	??__Umul8_16,w
  4798  0AD6  00A4               	movwf	__Umul8_16@word_mpld
  4799  0AD7  0821               	movf	??__Umul8_16+1,w
  4800  0AD8  00A5               	movwf	__Umul8_16@word_mpld+1
  4801  0AD9                     l2907:
  4802  0AD9  1C26               	btfss	__Umul8_16@multiplier,0
  4803  0ADA  2ADC               	goto	u4101
  4804  0ADB  2ADD               	goto	u4100
  4805  0ADC                     u4101:
  4806  0ADC  2AE3               	goto	l704
  4807  0ADD                     u4100:
  4808  0ADD                     l2909:
  4809  0ADD  0824               	movf	__Umul8_16@word_mpld,w
  4810  0ADE  07A2               	addwf	__Umul8_16@product,f
  4811  0ADF  1803               	skipnc
  4812  0AE0  0AA3               	incf	__Umul8_16@product+1,f
  4813  0AE1  0825               	movf	__Umul8_16@word_mpld+1,w
  4814  0AE2  07A3               	addwf	__Umul8_16@product+1,f
  4815  0AE3                     l704:
  4816  0AE3  3001               	movlw	1
  4817  0AE4                     u4115:
  4818  0AE4  1003               	clrc
  4819  0AE5  0DA4               	rlf	__Umul8_16@word_mpld,f
  4820  0AE6  0DA5               	rlf	__Umul8_16@word_mpld+1,f
  4821  0AE7  3EFF               	addlw	-1
  4822  0AE8  1D03               	skipz
  4823  0AE9  2AE4               	goto	u4115
  4824  0AEA  1003               	clrc
  4825  0AEB  0CA6               	rrf	__Umul8_16@multiplier,f
  4826  0AEC                     l2911:
  4827  0AEC  0826               	movf	__Umul8_16@multiplier,w
  4828  0AED  1D03               	btfss	3,2
  4829  0AEE  2AF0               	goto	u4121
  4830  0AEF  2AF1               	goto	u4120
  4831  0AF0                     u4121:
  4832  0AF0  2AD9               	goto	l2907
  4833  0AF1                     u4120:
  4834  0AF1                     l2913:
  4835  0AF1  0823               	movf	__Umul8_16@product+1,w
  4836  0AF2  00F5               	movwf	?__Umul8_16+1
  4837  0AF3  0822               	movf	__Umul8_16@product,w
  4838  0AF4  00F4               	movwf	?__Umul8_16
  4839  0AF5                     l706:
  4840  0AF5  0008               	return
  4841  0AF6                     __end_of__Umul8_16:
  4842                           
  4843                           	psect	text13
  4844  0611                     __ptext13:	
  4845 ;; *************** function ___fldiv *****************
  4846 ;; Defined at:
  4847 ;;		line 8 in file "C:\Program Files\Microchip\xc8\v2.32\pic\sources\c90\common\sprcdiv.c"
  4848 ;; Parameters:    Size  Location     Type
  4849 ;;  a               4   48[BANK0 ] unsigned int 
  4850 ;;  b               4   52[BANK0 ] unsigned int 
  4851 ;; Auto vars:     Size  Location     Type
  4852 ;;  grs             4   68[BANK0 ] unsigned long 
  4853 ;;  rem             4   61[BANK0 ] unsigned long 
  4854 ;;  new_exp         2   66[BANK0 ] int 
  4855 ;;  aexp            1   73[BANK0 ] unsigned char 
  4856 ;;  bexp            1   72[BANK0 ] unsigned char 
  4857 ;;  sign            1   65[BANK0 ] unsigned char 
  4858 ;; Return value:  Size  Location     Type
  4859 ;;                  4   48[BANK0 ] unsigned char 
  4860 ;; Registers used:
  4861 ;;		wreg, status,2, status,0, btemp+1
  4862 ;; Tracked objects:
  4863 ;;		On entry : 0/0
  4864 ;;		On exit  : 0/0
  4865 ;;		Unchanged: 0/0
  4866 ;; Data sizes:     COMMON   BANK0   BANK1   BANK3   BANK2
  4867 ;;      Params:         0       8       0       0       0
  4868 ;;      Locals:         0      13       0       0       0
  4869 ;;      Temps:          0       5       0       0       0
  4870 ;;      Totals:         0      26       0       0       0
  4871 ;;Total ram usage:       26 bytes
  4872 ;; Hardware stack levels used: 1
  4873 ;; Hardware stack levels required when called: 1
  4874 ;; This function calls:
  4875 ;;		Nothing
  4876 ;; This function is called by:
  4877 ;;		_main
  4878 ;; This function uses a non-reentrant model
  4879 ;;
  4880                           
  4881                           
  4882                           ;psect for function ___fldiv
  4883  0611                     ___fldiv:
  4884  0611                     l2273:	
  4885                           ;incstack = 0
  4886                           ; Regs used in ___fldiv: [wreg+status,2+status,0+btemp+1]
  4887                           
  4888  0611  1283               	bcf	3,5	;RP0=0, select bank0
  4889  0612  1303               	bcf	3,6	;RP1=0, select bank0
  4890  0613  0857               	movf	___fldiv@b+3,w
  4891  0614  3980               	andlw	128
  4892  0615  00D8               	movwf	??___fldiv
  4893  0616  0858               	movf	??___fldiv,w
  4894  0617  00E1               	movwf	___fldiv@sign
  4895  0618                     l2275:
  4896  0618  0857               	movf	___fldiv@b+3,w
  4897  0619  00D8               	movwf	??___fldiv
  4898  061A  0758               	addwf	??___fldiv,w
  4899  061B  00D9               	movwf	??___fldiv+1
  4900  061C  0859               	movf	??___fldiv+1,w
  4901  061D  00E8               	movwf	___fldiv@bexp
  4902  061E                     l2277:
  4903  061E  1FD6               	btfss	___fldiv@b+2,7
  4904  061F  2E21               	goto	u2721
  4905  0620  2E22               	goto	u2720
  4906  0621                     u2721:
  4907  0621  2E23               	goto	l2281
  4908  0622                     u2720:
  4909  0622                     l2279:
  4910  0622  1468               	bsf	___fldiv@bexp,0
  4911  0623                     l2281:
  4912  0623  0868               	movf	___fldiv@bexp,w
  4913  0624  1903               	btfsc	3,2
  4914  0625  2E27               	goto	u2731
  4915  0626  2E28               	goto	u2730
  4916  0627                     u2731:
  4917  0627  2E38               	goto	l2291
  4918  0628                     u2730:
  4919  0628                     l2283:
  4920  0628  0A68               	incf	___fldiv@bexp,w
  4921  0629  1D03               	btfss	3,2
  4922  062A  2E2C               	goto	u2741
  4923  062B  2E2D               	goto	u2740
  4924  062C                     u2741:
  4925  062C  2E35               	goto	l2287
  4926  062D                     u2740:
  4927  062D                     l2285:
  4928  062D  3000               	movlw	0
  4929  062E  00D7               	movwf	___fldiv@b+3
  4930  062F  3000               	movlw	0
  4931  0630  00D6               	movwf	___fldiv@b+2
  4932  0631  3000               	movlw	0
  4933  0632  00D5               	movwf	___fldiv@b+1
  4934  0633  3000               	movlw	0
  4935  0634  00D4               	movwf	___fldiv@b
  4936  0635                     l2287:
  4937  0635  17D6               	bsf	___fldiv@b+2,7
  4938  0636                     l2289:
  4939  0636  01D7               	clrf	___fldiv@b+3
  4940  0637  2E40               	goto	l2293
  4941  0638                     l2291:
  4942  0638  3000               	movlw	0
  4943  0639  00D7               	movwf	___fldiv@b+3
  4944  063A  3000               	movlw	0
  4945  063B  00D6               	movwf	___fldiv@b+2
  4946  063C  3000               	movlw	0
  4947  063D  00D5               	movwf	___fldiv@b+1
  4948  063E  3000               	movlw	0
  4949  063F  00D4               	movwf	___fldiv@b
  4950  0640                     l2293:
  4951  0640  0853               	movf	___fldiv@a+3,w
  4952  0641  3980               	andlw	128
  4953  0642  00D8               	movwf	??___fldiv
  4954  0643  0858               	movf	??___fldiv,w
  4955  0644  06E1               	xorwf	___fldiv@sign,f
  4956  0645                     l2295:
  4957  0645  0853               	movf	___fldiv@a+3,w
  4958  0646  00D8               	movwf	??___fldiv
  4959  0647  0758               	addwf	??___fldiv,w
  4960  0648  00D9               	movwf	??___fldiv+1
  4961  0649  0859               	movf	??___fldiv+1,w
  4962  064A  00E9               	movwf	___fldiv@aexp
  4963  064B                     l2297:
  4964  064B  1FD2               	btfss	___fldiv@a+2,7
  4965  064C  2E4E               	goto	u2751
  4966  064D  2E4F               	goto	u2750
  4967  064E                     u2751:
  4968  064E  2E50               	goto	l2301
  4969  064F                     u2750:
  4970  064F                     l2299:
  4971  064F  1469               	bsf	___fldiv@aexp,0
  4972  0650                     l2301:
  4973  0650  0869               	movf	___fldiv@aexp,w
  4974  0651  1903               	btfsc	3,2
  4975  0652  2E54               	goto	u2761
  4976  0653  2E55               	goto	u2760
  4977  0654                     u2761:
  4978  0654  2E65               	goto	l2311
  4979  0655                     u2760:
  4980  0655                     l2303:
  4981  0655  0A69               	incf	___fldiv@aexp,w
  4982  0656  1D03               	btfss	3,2
  4983  0657  2E59               	goto	u2771
  4984  0658  2E5A               	goto	u2770
  4985  0659                     u2771:
  4986  0659  2E62               	goto	l2307
  4987  065A                     u2770:
  4988  065A                     l2305:
  4989  065A  3000               	movlw	0
  4990  065B  00D3               	movwf	___fldiv@a+3
  4991  065C  3000               	movlw	0
  4992  065D  00D2               	movwf	___fldiv@a+2
  4993  065E  3000               	movlw	0
  4994  065F  00D1               	movwf	___fldiv@a+1
  4995  0660  3000               	movlw	0
  4996  0661  00D0               	movwf	___fldiv@a
  4997  0662                     l2307:
  4998  0662  17D2               	bsf	___fldiv@a+2,7
  4999  0663                     l2309:
  5000  0663  01D3               	clrf	___fldiv@a+3
  5001  0664  2E6D               	goto	l645
  5002  0665                     l2311:
  5003  0665  3000               	movlw	0
  5004  0666  00D3               	movwf	___fldiv@a+3
  5005  0667  3000               	movlw	0
  5006  0668  00D2               	movwf	___fldiv@a+2
  5007  0669  3000               	movlw	0
  5008  066A  00D1               	movwf	___fldiv@a+1
  5009  066B  3000               	movlw	0
  5010  066C  00D0               	movwf	___fldiv@a
  5011  066D                     l645:
  5012  066D  0853               	movf	___fldiv@a+3,w
  5013  066E  0452               	iorwf	___fldiv@a+2,w
  5014  066F  0451               	iorwf	___fldiv@a+1,w
  5015  0670  0450               	iorwf	___fldiv@a,w
  5016  0671  1D03               	skipz
  5017  0672  2E74               	goto	u2781
  5018  0673  2E75               	goto	u2780
  5019  0674                     u2781:
  5020  0674  2E8E               	goto	l2321
  5021  0675                     u2780:
  5022  0675                     l2313:
  5023  0675  3000               	movlw	0
  5024  0676  00D7               	movwf	___fldiv@b+3
  5025  0677  3000               	movlw	0
  5026  0678  00D6               	movwf	___fldiv@b+2
  5027  0679  3000               	movlw	0
  5028  067A  00D5               	movwf	___fldiv@b+1
  5029  067B  3000               	movlw	0
  5030  067C  00D4               	movwf	___fldiv@b
  5031  067D  3080               	movlw	128
  5032  067E  04D6               	iorwf	___fldiv@b+2,f
  5033  067F  307F               	movlw	127
  5034  0680  04D7               	iorwf	___fldiv@b+3,f
  5035  0681                     l2315:
  5036  0681  0861               	movf	___fldiv@sign,w
  5037  0682  00D8               	movwf	??___fldiv
  5038  0683  0858               	movf	??___fldiv,w
  5039  0684  04D7               	iorwf	___fldiv@b+3,f
  5040  0685                     l2317:
  5041  0685  0857               	movf	___fldiv@b+3,w
  5042  0686  00D3               	movwf	?___fldiv+3
  5043  0687  0856               	movf	___fldiv@b+2,w
  5044  0688  00D2               	movwf	?___fldiv+2
  5045  0689  0855               	movf	___fldiv@b+1,w
  5046  068A  00D1               	movwf	?___fldiv+1
  5047  068B  0854               	movf	___fldiv@b,w
  5048  068C  00D0               	movwf	?___fldiv
  5049  068D  2FED               	goto	l647
  5050  068E                     l2321:
  5051  068E  0868               	movf	___fldiv@bexp,w
  5052  068F  1D03               	btfss	3,2
  5053  0690  2E92               	goto	u2791
  5054  0691  2E93               	goto	u2790
  5055  0692                     u2791:
  5056  0692  2E9C               	goto	l2327
  5057  0693                     u2790:
  5058  0693                     l2323:
  5059  0693  3000               	movlw	0
  5060  0694  00D3               	movwf	?___fldiv+3
  5061  0695  3000               	movlw	0
  5062  0696  00D2               	movwf	?___fldiv+2
  5063  0697  3000               	movlw	0
  5064  0698  00D1               	movwf	?___fldiv+1
  5065  0699  3000               	movlw	0
  5066  069A  00D0               	movwf	?___fldiv
  5067  069B  2FED               	goto	l647
  5068  069C                     l2327:
  5069  069C  0868               	movf	___fldiv@bexp,w
  5070  069D  00D8               	movwf	??___fldiv
  5071  069E  01D9               	clrf	??___fldiv+1
  5072  069F  0859               	movf	??___fldiv+1,w
  5073  06A0  00DB               	movwf	??___fldiv+3
  5074  06A1  0869               	movf	___fldiv@aexp,w
  5075  06A2  0258               	subwf	??___fldiv,w
  5076  06A3  00DA               	movwf	??___fldiv+2
  5077  06A4  1C03               	skipc
  5078  06A5  03DB               	decf	??___fldiv+3,f
  5079  06A6  085A               	movf	??___fldiv+2,w
  5080  06A7  3E7F               	addlw	127
  5081  06A8  00E2               	movwf	___fldiv@new_exp
  5082  06A9  085B               	movf	??___fldiv+3,w
  5083  06AA  1803               	skipnc
  5084  06AB  3E01               	addlw	1
  5085  06AC  3E00               	addlw	0
  5086  06AD  00E3               	movwf	___fldiv@new_exp+1
  5087  06AE                     l2329:
  5088  06AE  0857               	movf	___fldiv@b+3,w
  5089  06AF  00E0               	movwf	___fldiv@rem+3
  5090  06B0  0856               	movf	___fldiv@b+2,w
  5091  06B1  00DF               	movwf	___fldiv@rem+2
  5092  06B2  0855               	movf	___fldiv@b+1,w
  5093  06B3  00DE               	movwf	___fldiv@rem+1
  5094  06B4  0854               	movf	___fldiv@b,w
  5095  06B5  00DD               	movwf	___fldiv@rem
  5096  06B6                     l2331:
  5097  06B6  3000               	movlw	0
  5098  06B7  00D7               	movwf	___fldiv@b+3
  5099  06B8  3000               	movlw	0
  5100  06B9  00D6               	movwf	___fldiv@b+2
  5101  06BA  3000               	movlw	0
  5102  06BB  00D5               	movwf	___fldiv@b+1
  5103  06BC  3000               	movlw	0
  5104  06BD  00D4               	movwf	___fldiv@b
  5105  06BE                     l2333:
  5106  06BE  3000               	movlw	0
  5107  06BF  00E7               	movwf	___fldiv@grs+3
  5108  06C0  3000               	movlw	0
  5109  06C1  00E6               	movwf	___fldiv@grs+2
  5110  06C2  3000               	movlw	0
  5111  06C3  00E5               	movwf	___fldiv@grs+1
  5112  06C4  3000               	movlw	0
  5113  06C5  00E4               	movwf	___fldiv@grs
  5114  06C6                     l2335:
  5115  06C6  01E9               	clrf	___fldiv@aexp
  5116  06C7  2F12               	goto	l2355
  5117  06C8                     l2337:
  5118  06C8  0869               	movf	___fldiv@aexp,w
  5119  06C9  1903               	btfsc	3,2
  5120  06CA  2ECC               	goto	u2801
  5121  06CB  2ECD               	goto	u2800
  5122  06CC                     u2801:
  5123  06CC  2EED               	goto	l2347
  5124  06CD                     u2800:
  5125  06CD                     l2339:
  5126  06CD  3001               	movlw	1
  5127  06CE  00D8               	movwf	??___fldiv
  5128  06CF                     u2815:
  5129  06CF  1003               	clrc
  5130  06D0  0DDD               	rlf	___fldiv@rem,f
  5131  06D1  0DDE               	rlf	___fldiv@rem+1,f
  5132  06D2  0DDF               	rlf	___fldiv@rem+2,f
  5133  06D3  0DE0               	rlf	___fldiv@rem+3,f
  5134  06D4  0BD8               	decfsz	??___fldiv,f
  5135  06D5  2ECF               	goto	u2815
  5136  06D6  3001               	movlw	1
  5137  06D7  00D8               	movwf	??___fldiv
  5138  06D8                     u2825:
  5139  06D8  1003               	clrc
  5140  06D9  0DD4               	rlf	___fldiv@b,f
  5141  06DA  0DD5               	rlf	___fldiv@b+1,f
  5142  06DB  0DD6               	rlf	___fldiv@b+2,f
  5143  06DC  0DD7               	rlf	___fldiv@b+3,f
  5144  06DD  0BD8               	decfsz	??___fldiv,f
  5145  06DE  2ED8               	goto	u2825
  5146  06DF                     l2341:
  5147  06DF  1FE7               	btfss	___fldiv@grs+3,7
  5148  06E0  2EE2               	goto	u2831
  5149  06E1  2EE3               	goto	u2830
  5150  06E2                     u2831:
  5151  06E2  2EE4               	goto	l2345
  5152  06E3                     u2830:
  5153  06E3                     l2343:
  5154  06E3  1454               	bsf	___fldiv@b,0
  5155  06E4                     l2345:
  5156  06E4  3001               	movlw	1
  5157  06E5  00D8               	movwf	??___fldiv
  5158  06E6                     u2845:
  5159  06E6  1003               	clrc
  5160  06E7  0DE4               	rlf	___fldiv@grs,f
  5161  06E8  0DE5               	rlf	___fldiv@grs+1,f
  5162  06E9  0DE6               	rlf	___fldiv@grs+2,f
  5163  06EA  0DE7               	rlf	___fldiv@grs+3,f
  5164  06EB  0BD8               	decfsz	??___fldiv,f
  5165  06EC  2EE6               	goto	u2845
  5166  06ED                     l2347:
  5167  06ED  0853               	movf	___fldiv@a+3,w
  5168  06EE  0260               	subwf	___fldiv@rem+3,w
  5169  06EF  1D03               	skipz
  5170  06F0  2EFB               	goto	u2855
  5171  06F1  0852               	movf	___fldiv@a+2,w
  5172  06F2  025F               	subwf	___fldiv@rem+2,w
  5173  06F3  1D03               	skipz
  5174  06F4  2EFB               	goto	u2855
  5175  06F5  0851               	movf	___fldiv@a+1,w
  5176  06F6  025E               	subwf	___fldiv@rem+1,w
  5177  06F7  1D03               	skipz
  5178  06F8  2EFB               	goto	u2855
  5179  06F9  0850               	movf	___fldiv@a,w
  5180  06FA  025D               	subwf	___fldiv@rem,w
  5181  06FB                     u2855:
  5182  06FB  1C03               	skipc
  5183  06FC  2EFE               	goto	u2851
  5184  06FD  2EFF               	goto	u2850
  5185  06FE                     u2851:
  5186  06FE  2F0E               	goto	l2353
  5187  06FF                     u2850:
  5188  06FF                     l2349:
  5189  06FF  1767               	bsf	___fldiv@grs+3,6
  5190  0700                     l2351:
  5191  0700  0850               	movf	___fldiv@a,w
  5192  0701  02DD               	subwf	___fldiv@rem,f
  5193  0702  0851               	movf	___fldiv@a+1,w
  5194  0703  1C03               	skipc
  5195  0704  0F51               	incfsz	___fldiv@a+1,w
  5196  0705  02DE               	subwf	___fldiv@rem+1,f
  5197  0706  0852               	movf	___fldiv@a+2,w
  5198  0707  1C03               	skipc
  5199  0708  0F52               	incfsz	___fldiv@a+2,w
  5200  0709  02DF               	subwf	___fldiv@rem+2,f
  5201  070A  0853               	movf	___fldiv@a+3,w
  5202  070B  1C03               	skipc
  5203  070C  0F53               	incfsz	___fldiv@a+3,w
  5204  070D  02E0               	subwf	___fldiv@rem+3,f
  5205  070E                     l2353:
  5206  070E  3001               	movlw	1
  5207  070F  00D8               	movwf	??___fldiv
  5208  0710  0858               	movf	??___fldiv,w
  5209  0711  07E9               	addwf	___fldiv@aexp,f
  5210  0712                     l2355:
  5211  0712  301A               	movlw	26
  5212  0713  0269               	subwf	___fldiv@aexp,w
  5213  0714  1C03               	skipc
  5214  0715  2F17               	goto	u2861
  5215  0716  2F18               	goto	u2860
  5216  0717                     u2861:
  5217  0717  2EC8               	goto	l2337
  5218  0718                     u2860:
  5219  0718                     l2357:
  5220  0718  0860               	movf	___fldiv@rem+3,w
  5221  0719  045F               	iorwf	___fldiv@rem+2,w
  5222  071A  045E               	iorwf	___fldiv@rem+1,w
  5223  071B  045D               	iorwf	___fldiv@rem,w
  5224  071C  1903               	skipnz
  5225  071D  2F1F               	goto	u2871
  5226  071E  2F20               	goto	u2870
  5227  071F                     u2871:
  5228  071F  2F3F               	goto	l2371
  5229  0720                     u2870:
  5230  0720                     l2359:
  5231  0720  1464               	bsf	___fldiv@grs,0
  5232  0721  2F3F               	goto	l2371
  5233  0722                     l2361:
  5234  0722  3001               	movlw	1
  5235  0723  00D8               	movwf	??___fldiv
  5236  0724                     u2885:
  5237  0724  1003               	clrc
  5238  0725  0DD4               	rlf	___fldiv@b,f
  5239  0726  0DD5               	rlf	___fldiv@b+1,f
  5240  0727  0DD6               	rlf	___fldiv@b+2,f
  5241  0728  0DD7               	rlf	___fldiv@b+3,f
  5242  0729  0BD8               	decfsz	??___fldiv,f
  5243  072A  2F24               	goto	u2885
  5244  072B                     l2363:
  5245  072B  1FE7               	btfss	___fldiv@grs+3,7
  5246  072C  2F2E               	goto	u2891
  5247  072D  2F2F               	goto	u2890
  5248  072E                     u2891:
  5249  072E  2F30               	goto	l2367
  5250  072F                     u2890:
  5251  072F                     l2365:
  5252  072F  1454               	bsf	___fldiv@b,0
  5253  0730                     l2367:
  5254  0730  3001               	movlw	1
  5255  0731  00D8               	movwf	??___fldiv
  5256  0732                     u2905:
  5257  0732  1003               	clrc
  5258  0733  0DE4               	rlf	___fldiv@grs,f
  5259  0734  0DE5               	rlf	___fldiv@grs+1,f
  5260  0735  0DE6               	rlf	___fldiv@grs+2,f
  5261  0736  0DE7               	rlf	___fldiv@grs+3,f
  5262  0737  0BD8               	decfsz	??___fldiv,f
  5263  0738  2F32               	goto	u2905
  5264  0739                     l2369:
  5265  0739  30FF               	movlw	255
  5266  073A  07E2               	addwf	___fldiv@new_exp,f
  5267  073B  1803               	skipnc
  5268  073C  0AE3               	incf	___fldiv@new_exp+1,f
  5269  073D  30FF               	movlw	255
  5270  073E  07E3               	addwf	___fldiv@new_exp+1,f
  5271  073F                     l2371:
  5272  073F  1FD6               	btfss	___fldiv@b+2,7
  5273  0740  2F42               	goto	u2911
  5274  0741  2F43               	goto	u2910
  5275  0742                     u2911:
  5276  0742  2F22               	goto	l2361
  5277  0743                     u2910:
  5278  0743                     l2373:
  5279  0743  01E9               	clrf	___fldiv@aexp
  5280  0744                     l2375:
  5281  0744  1FE7               	btfss	___fldiv@grs+3,7
  5282  0745  2F47               	goto	u2921
  5283  0746  2F48               	goto	u2920
  5284  0747                     u2921:
  5285  0747  2F64               	goto	l2383
  5286  0748                     u2920:
  5287  0748                     l2377:
  5288  0748  30FF               	movlw	255
  5289  0749  0564               	andwf	___fldiv@grs,w
  5290  074A  00D8               	movwf	??___fldiv
  5291  074B  30FF               	movlw	255
  5292  074C  0565               	andwf	___fldiv@grs+1,w
  5293  074D  00D9               	movwf	??___fldiv+1
  5294  074E  30FF               	movlw	255
  5295  074F  0566               	andwf	___fldiv@grs+2,w
  5296  0750  00DA               	movwf	??___fldiv+2
  5297  0751  307F               	movlw	127
  5298  0752  0567               	andwf	___fldiv@grs+3,w
  5299  0753  00DB               	movwf	??___fldiv+3
  5300  0754  085B               	movf	??___fldiv+3,w
  5301  0755  045A               	iorwf	??___fldiv+2,w
  5302  0756  0459               	iorwf	??___fldiv+1,w
  5303  0757  0458               	iorwf	??___fldiv,w
  5304  0758  1903               	skipnz
  5305  0759  2F5B               	goto	u2931
  5306  075A  2F5C               	goto	u2930
  5307  075B                     u2931:
  5308  075B  2F5F               	goto	l661
  5309  075C                     u2930:
  5310  075C                     l2379:
  5311  075C  01E9               	clrf	___fldiv@aexp
  5312  075D  0AE9               	incf	___fldiv@aexp,f
  5313  075E  2F64               	goto	l2383
  5314  075F                     l661:
  5315  075F  1C54               	btfss	___fldiv@b,0
  5316  0760  2F62               	goto	u2941
  5317  0761  2F63               	goto	u2940
  5318  0762                     u2941:
  5319  0762  2F64               	goto	l2383
  5320  0763                     u2940:
  5321  0763  2F5C               	goto	l2379
  5322  0764                     l2383:
  5323  0764  0869               	movf	___fldiv@aexp,w
  5324  0765  1903               	btfsc	3,2
  5325  0766  2F68               	goto	u2951
  5326  0767  2F69               	goto	u2950
  5327  0768                     u2951:
  5328  0768  2F9A               	goto	l2393
  5329  0769                     u2950:
  5330  0769                     l2385:
  5331  0769  3001               	movlw	1
  5332  076A  07D4               	addwf	___fldiv@b,f
  5333  076B  3000               	movlw	0
  5334  076C  1803               	skipnc
  5335  076D  3001               	movlw	1
  5336  076E  07D5               	addwf	___fldiv@b+1,f
  5337  076F  3000               	movlw	0
  5338  0770  1803               	skipnc
  5339  0771  3001               	movlw	1
  5340  0772  07D6               	addwf	___fldiv@b+2,f
  5341  0773  3000               	movlw	0
  5342  0774  1803               	skipnc
  5343  0775  3001               	movlw	1
  5344  0776  07D7               	addwf	___fldiv@b+3,f
  5345  0777                     l2387:
  5346  0777  1C57               	btfss	___fldiv@b+3,0
  5347  0778  2F7A               	goto	u2961
  5348  0779  2F7B               	goto	u2960
  5349  077A                     u2961:
  5350  077A  2F9A               	goto	l2393
  5351  077B                     u2960:
  5352  077B                     l2389:
  5353  077B  0854               	movf	___fldiv@b,w
  5354  077C  00D8               	movwf	??___fldiv
  5355  077D  0855               	movf	___fldiv@b+1,w
  5356  077E  00D9               	movwf	??___fldiv+1
  5357  077F  0856               	movf	___fldiv@b+2,w
  5358  0780  00DA               	movwf	??___fldiv+2
  5359  0781  0857               	movf	___fldiv@b+3,w
  5360  0782  00DB               	movwf	??___fldiv+3
  5361  0783  3001               	movlw	1
  5362  0784  00DC               	movwf	??___fldiv+4
  5363  0785                     u2975:
  5364  0785  0D5B               	rlf	??___fldiv+3,w
  5365  0786  0CDB               	rrf	??___fldiv+3,f
  5366  0787  0CDA               	rrf	??___fldiv+2,f
  5367  0788  0CD9               	rrf	??___fldiv+1,f
  5368  0789  0CD8               	rrf	??___fldiv,f
  5369  078A                     u2970:
  5370  078A  0BDC               	decfsz	??___fldiv+4,f
  5371  078B  2F85               	goto	u2975
  5372  078C  085B               	movf	??___fldiv+3,w
  5373  078D  00D7               	movwf	___fldiv@b+3
  5374  078E  085A               	movf	??___fldiv+2,w
  5375  078F  00D6               	movwf	___fldiv@b+2
  5376  0790  0859               	movf	??___fldiv+1,w
  5377  0791  00D5               	movwf	___fldiv@b+1
  5378  0792  0858               	movf	??___fldiv,w
  5379  0793  00D4               	movwf	___fldiv@b
  5380  0794                     l2391:
  5381  0794  3001               	movlw	1
  5382  0795  07E2               	addwf	___fldiv@new_exp,f
  5383  0796  1803               	skipnc
  5384  0797  0AE3               	incf	___fldiv@new_exp+1,f
  5385  0798  3000               	movlw	0
  5386  0799  07E3               	addwf	___fldiv@new_exp+1,f
  5387  079A                     l2393:
  5388  079A  0863               	movf	___fldiv@new_exp+1,w
  5389  079B  3A80               	xorlw	128
  5390  079C  00FF               	movwf	btemp+1
  5391  079D  3080               	movlw	128
  5392  079E  027F               	subwf	btemp+1,w
  5393  079F  1D03               	skipz
  5394  07A0  2FA3               	goto	u2985
  5395  07A1  30FF               	movlw	255
  5396  07A2  0262               	subwf	___fldiv@new_exp,w
  5397  07A3                     u2985:
  5398  07A3  1C03               	skipc
  5399  07A4  2FA6               	goto	u2981
  5400  07A5  2FA7               	goto	u2980
  5401  07A6                     u2981:
  5402  07A6  2FB5               	goto	l2397
  5403  07A7                     u2980:
  5404  07A7                     l2395:
  5405  07A7  30FF               	movlw	255
  5406  07A8  1283               	bcf	3,5	;RP0=0, select bank0
  5407  07A9  1303               	bcf	3,6	;RP1=0, select bank0
  5408  07AA  00E2               	movwf	___fldiv@new_exp
  5409  07AB  3000               	movlw	0
  5410  07AC  00E3               	movwf	___fldiv@new_exp+1
  5411  07AD  3000               	movlw	0
  5412  07AE  00D7               	movwf	___fldiv@b+3
  5413  07AF  3000               	movlw	0
  5414  07B0  00D6               	movwf	___fldiv@b+2
  5415  07B1  3000               	movlw	0
  5416  07B2  00D5               	movwf	___fldiv@b+1
  5417  07B3  3000               	movlw	0
  5418  07B4  00D4               	movwf	___fldiv@b
  5419  07B5                     l2397:
  5420  07B5  1283               	bcf	3,5	;RP0=0, select bank0
  5421  07B6  1303               	bcf	3,6	;RP1=0, select bank0
  5422  07B7  0863               	movf	___fldiv@new_exp+1,w
  5423  07B8  3A80               	xorlw	128
  5424  07B9  00FF               	movwf	btemp+1
  5425  07BA  3080               	movlw	128
  5426  07BB  027F               	subwf	btemp+1,w
  5427  07BC  1D03               	skipz
  5428  07BD  2FC0               	goto	u2995
  5429  07BE  3001               	movlw	1
  5430  07BF  0262               	subwf	___fldiv@new_exp,w
  5431  07C0                     u2995:
  5432  07C0  1803               	skipnc
  5433  07C1  2FC3               	goto	u2991
  5434  07C2  2FC4               	goto	u2990
  5435  07C3                     u2991:
  5436  07C3  2FD1               	goto	l667
  5437  07C4                     u2990:
  5438  07C4                     l2399:
  5439  07C4  1283               	bcf	3,5	;RP0=0, select bank0
  5440  07C5  1303               	bcf	3,6	;RP1=0, select bank0
  5441  07C6  01E2               	clrf	___fldiv@new_exp
  5442  07C7  01E3               	clrf	___fldiv@new_exp+1
  5443  07C8                     l2401:
  5444  07C8  3000               	movlw	0
  5445  07C9  00D7               	movwf	___fldiv@b+3
  5446  07CA  3000               	movlw	0
  5447  07CB  00D6               	movwf	___fldiv@b+2
  5448  07CC  3000               	movlw	0
  5449  07CD  00D5               	movwf	___fldiv@b+1
  5450  07CE  3000               	movlw	0
  5451  07CF  00D4               	movwf	___fldiv@b
  5452  07D0                     l2403:
  5453  07D0  01E1               	clrf	___fldiv@sign
  5454  07D1                     l667:
  5455  07D1  1283               	bcf	3,5	;RP0=0, select bank0
  5456  07D2  1303               	bcf	3,6	;RP1=0, select bank0
  5457  07D3  0862               	movf	___fldiv@new_exp,w
  5458  07D4  00D8               	movwf	??___fldiv
  5459  07D5  0858               	movf	??___fldiv,w
  5460  07D6  00E8               	movwf	___fldiv@bexp
  5461  07D7                     l2405:
  5462  07D7  1C68               	btfss	___fldiv@bexp,0
  5463  07D8  2FDA               	goto	u3001
  5464  07D9  2FDB               	goto	u3000
  5465  07DA                     u3001:
  5466  07DA  2FDD               	goto	l2409
  5467  07DB                     u3000:
  5468  07DB                     l2407:
  5469  07DB  17D6               	bsf	___fldiv@b+2,7
  5470  07DC  2FE1               	goto	l669
  5471  07DD                     l2409:
  5472  07DD  307F               	movlw	127
  5473  07DE  00D8               	movwf	??___fldiv
  5474  07DF  0858               	movf	??___fldiv,w
  5475  07E0  05D6               	andwf	___fldiv@b+2,f
  5476  07E1                     l669:
  5477  07E1  0868               	movf	___fldiv@bexp,w
  5478  07E2  00D8               	movwf	??___fldiv
  5479  07E3  1003               	clrc
  5480  07E4  0C58               	rrf	??___fldiv,w
  5481  07E5  00D9               	movwf	??___fldiv+1
  5482  07E6  0859               	movf	??___fldiv+1,w
  5483  07E7  00D7               	movwf	___fldiv@b+3
  5484  07E8  0861               	movf	___fldiv@sign,w
  5485  07E9  00D8               	movwf	??___fldiv
  5486  07EA  0858               	movf	??___fldiv,w
  5487  07EB  04D7               	iorwf	___fldiv@b+3,f
  5488  07EC  2E85               	goto	l2317
  5489  07ED                     l647:
  5490  07ED  0008               	return
  5491  07EE                     __end_of___fldiv:
  5492                           
  5493                           	psect	text14
  5494  0AA4                     __ptext14:	
  5495 ;; *************** function _Lcd_Write_String *****************
  5496 ;; Defined at:
  5497 ;;		line 77 in file "LCD.c"
  5498 ;; Parameters:    Size  Location     Type
  5499 ;;  a               1    wreg     PTR unsigned char 
  5500 ;;		 -> STR_1(17), 
  5501 ;; Auto vars:     Size  Location     Type
  5502 ;;  a               1    3[BANK0 ] PTR unsigned char 
  5503 ;;		 -> STR_1(17), 
  5504 ;;  i               2    4[BANK0 ] int 
  5505 ;; Return value:  Size  Location     Type
  5506 ;;                  1    wreg      void 
  5507 ;; Registers used:
  5508 ;;		wreg, fsr0l, fsr0h, status,2, status,0, pclath, cstack
  5509 ;; Tracked objects:
  5510 ;;		On entry : 0/0
  5511 ;;		On exit  : 0/0
  5512 ;;		Unchanged: 0/0
  5513 ;; Data sizes:     COMMON   BANK0   BANK1   BANK3   BANK2
  5514 ;;      Params:         0       0       0       0       0
  5515 ;;      Locals:         0       3       0       0       0
  5516 ;;      Temps:          0       0       0       0       0
  5517 ;;      Totals:         0       3       0       0       0
  5518 ;;Total ram usage:        3 bytes
  5519 ;; Hardware stack levels used: 1
  5520 ;; Hardware stack levels required when called: 3
  5521 ;; This function calls:
  5522 ;;		_Lcd_Write_Char
  5523 ;; This function is called by:
  5524 ;;		_main
  5525 ;; This function uses a non-reentrant model
  5526 ;;
  5527                           
  5528                           
  5529                           ;psect for function _Lcd_Write_String
  5530  0AA4                     _Lcd_Write_String:
  5531                           
  5532                           ;incstack = 0
  5533                           ; Regs used in _Lcd_Write_String: [wreg-fsr0h+status,2+status,0+pclath+cstack]
  5534                           ;Lcd_Write_String@a stored from wreg
  5535  0AA4  1283               	bcf	3,5	;RP0=0, select bank0
  5536  0AA5  1303               	bcf	3,6	;RP1=0, select bank0
  5537  0AA6  00A3               	movwf	Lcd_Write_String@a
  5538  0AA7                     l2949:
  5539                           
  5540                           ;LCD.c: 78:     int i;;LCD.c: 79:     for (i = 0; a[i] != '\0'; i++)
  5541  0AA7  01A4               	clrf	Lcd_Write_String@i
  5542  0AA8  01A5               	clrf	Lcd_Write_String@i+1
  5543  0AA9  2ABF               	goto	l2955
  5544  0AAA                     l2951:
  5545                           
  5546                           ;LCD.c: 80:         Lcd_Write_Char(a[i]);
  5547  0AAA  0824               	movf	Lcd_Write_String@i,w
  5548  0AAB  0723               	addwf	Lcd_Write_String@a,w
  5549  0AAC  0084               	movwf	4
  5550  0AAD  120A  158A  2000  120A  158A  	fcall	stringdir
  5551  0AB2  120A  158A  223B  120A  158A  	fcall	_Lcd_Write_Char
  5552  0AB7                     l2953:
  5553  0AB7  3001               	movlw	1
  5554  0AB8  1283               	bcf	3,5	;RP0=0, select bank0
  5555  0AB9  1303               	bcf	3,6	;RP1=0, select bank0
  5556  0ABA  07A4               	addwf	Lcd_Write_String@i,f
  5557  0ABB  1803               	skipnc
  5558  0ABC  0AA5               	incf	Lcd_Write_String@i+1,f
  5559  0ABD  3000               	movlw	0
  5560  0ABE  07A5               	addwf	Lcd_Write_String@i+1,f
  5561  0ABF                     l2955:
  5562  0ABF  0824               	movf	Lcd_Write_String@i,w
  5563  0AC0  0723               	addwf	Lcd_Write_String@a,w
  5564  0AC1  0084               	movwf	4
  5565  0AC2  120A  158A  2000  120A  158A  	fcall	stringdir
  5566  0AC7  3A00               	xorlw	0
  5567  0AC8  1D03               	skipz
  5568  0AC9  2ACB               	goto	u4171
  5569  0ACA  2ACC               	goto	u4170
  5570  0ACB                     u4171:
  5571  0ACB  2AAA               	goto	l2951
  5572  0ACC                     u4170:
  5573  0ACC                     l90:
  5574  0ACC  0008               	return
  5575  0ACD                     __end_of_Lcd_Write_String:
  5576                           
  5577                           	psect	text15
  5578  0A3B                     __ptext15:	
  5579 ;; *************** function _Lcd_Write_Char *****************
  5580 ;; Defined at:
  5581 ;;		line 65 in file "LCD.c"
  5582 ;; Parameters:    Size  Location     Type
  5583 ;;  a               1    wreg     unsigned char 
  5584 ;; Auto vars:     Size  Location     Type
  5585 ;;  a               1    0[BANK0 ] unsigned char 
  5586 ;;  y               1    2[BANK0 ] unsigned char 
  5587 ;;  temp            1    1[BANK0 ] unsigned char 
  5588 ;; Return value:  Size  Location     Type
  5589 ;;                  1    wreg      void 
  5590 ;; Registers used:
  5591 ;;		wreg, status,2, status,0, pclath, cstack
  5592 ;; Tracked objects:
  5593 ;;		On entry : 0/0
  5594 ;;		On exit  : 0/0
  5595 ;;		Unchanged: 0/0
  5596 ;; Data sizes:     COMMON   BANK0   BANK1   BANK3   BANK2
  5597 ;;      Params:         0       0       0       0       0
  5598 ;;      Locals:         0       3       0       0       0
  5599 ;;      Temps:          1       0       0       0       0
  5600 ;;      Totals:         1       3       0       0       0
  5601 ;;Total ram usage:        4 bytes
  5602 ;; Hardware stack levels used: 1
  5603 ;; Hardware stack levels required when called: 2
  5604 ;; This function calls:
  5605 ;;		_Lcd_Port
  5606 ;; This function is called by:
  5607 ;;		_Lcd_Write_String
  5608 ;;		_main
  5609 ;; This function uses a non-reentrant model
  5610 ;;
  5611                           
  5612                           
  5613                           ;psect for function _Lcd_Write_Char
  5614  0A3B                     _Lcd_Write_Char:
  5615                           
  5616                           ;incstack = 0
  5617                           ; Regs used in _Lcd_Write_Char: [wreg+status,2+status,0+pclath+cstack]
  5618                           ;Lcd_Write_Char@a stored from wreg
  5619  0A3B  1283               	bcf	3,5	;RP0=0, select bank0
  5620  0A3C  1303               	bcf	3,6	;RP1=0, select bank0
  5621  0A3D  00A0               	movwf	Lcd_Write_Char@a
  5622  0A3E                     l2657:
  5623                           
  5624                           ;LCD.c: 66:     char temp, y;;LCD.c: 67:     temp = a;
  5625  0A3E  0820               	movf	Lcd_Write_Char@a,w
  5626  0A3F  00F5               	movwf	??_Lcd_Write_Char
  5627  0A40  0875               	movf	??_Lcd_Write_Char,w
  5628  0A41  00A1               	movwf	Lcd_Write_Char@temp
  5629                           
  5630                           ;LCD.c: 68:     y = temp;
  5631  0A42  0821               	movf	Lcd_Write_Char@temp,w
  5632  0A43  00F5               	movwf	??_Lcd_Write_Char
  5633  0A44  0875               	movf	??_Lcd_Write_Char,w
  5634  0A45  00A2               	movwf	Lcd_Write_Char@y
  5635  0A46                     l2659:
  5636                           
  5637                           ;LCD.c: 69:     RE0 = 1;
  5638  0A46  1409               	bsf	9,0	;volatile
  5639  0A47                     l2661:
  5640                           
  5641                           ;LCD.c: 70:     Lcd_Port(y);
  5642  0A47  0822               	movf	Lcd_Write_Char@y,w
  5643  0A48  120A  158A  2204  120A  158A  	fcall	_Lcd_Port
  5644  0A4D                     l2663:
  5645                           
  5646                           ;LCD.c: 71:     RE1 = 1;
  5647  0A4D  1283               	bcf	3,5	;RP0=0, select bank0
  5648  0A4E  1303               	bcf	3,6	;RP1=0, select bank0
  5649  0A4F  1489               	bsf	9,1	;volatile
  5650  0A50                     l2665:
  5651                           
  5652                           ;LCD.c: 72:     _delay((unsigned long)((40)*(8000000/4000000.0)));
  5653  0A50  301A               	movlw	26
  5654  0A51  00F5               	movwf	??_Lcd_Write_Char
  5655  0A52                     u4917:
  5656  0A52  0BF5               	decfsz	??_Lcd_Write_Char,f
  5657  0A53  2A52               	goto	u4917
  5658  0A54  0000               	nop
  5659  0A55                     l2667:
  5660                           
  5661                           ;LCD.c: 73:     RE1 = 0;
  5662  0A55  1283               	bcf	3,5	;RP0=0, select bank0
  5663  0A56  1303               	bcf	3,6	;RP1=0, select bank0
  5664  0A57  1089               	bcf	9,1	;volatile
  5665  0A58                     l84:
  5666  0A58  0008               	return
  5667  0A59                     __end_of_Lcd_Write_Char:
  5668                           
  5669                           	psect	text16
  5670  0C22                     __ptext16:	
  5671 ;; *************** function _Lcd_Set_Cursor *****************
  5672 ;; Defined at:
  5673 ;;		line 30 in file "LCD.c"
  5674 ;; Parameters:    Size  Location     Type
  5675 ;;  a               1    wreg     unsigned char 
  5676 ;;  b               1    2[BANK0 ] unsigned char 
  5677 ;; Auto vars:     Size  Location     Type
  5678 ;;  a               1    5[BANK0 ] unsigned char 
  5679 ;;  temp            1    8[BANK0 ] unsigned char 
  5680 ;;  y               1    7[BANK0 ] unsigned char 
  5681 ;;  z               1    6[BANK0 ] unsigned char 
  5682 ;; Return value:  Size  Location     Type
  5683 ;;                  1    wreg      void 
  5684 ;; Registers used:
  5685 ;;		wreg, status,2, status,0, pclath, cstack
  5686 ;; Tracked objects:
  5687 ;;		On entry : 0/0
  5688 ;;		On exit  : 0/0
  5689 ;;		Unchanged: 0/0
  5690 ;; Data sizes:     COMMON   BANK0   BANK1   BANK3   BANK2
  5691 ;;      Params:         0       1       0       0       0
  5692 ;;      Locals:         0       4       0       0       0
  5693 ;;      Temps:          0       2       0       0       0
  5694 ;;      Totals:         0       7       0       0       0
  5695 ;;Total ram usage:        7 bytes
  5696 ;; Hardware stack levels used: 1
  5697 ;; Hardware stack levels required when called: 3
  5698 ;; This function calls:
  5699 ;;		_Lcd_Cmd
  5700 ;; This function is called by:
  5701 ;;		_main
  5702 ;; This function uses a non-reentrant model
  5703 ;;
  5704                           
  5705                           
  5706                           ;psect for function _Lcd_Set_Cursor
  5707  0C22                     _Lcd_Set_Cursor:
  5708                           
  5709                           ;incstack = 0
  5710                           ; Regs used in _Lcd_Set_Cursor: [wreg+status,2+status,0+pclath+cstack]
  5711                           ;Lcd_Set_Cursor@a stored from wreg
  5712  0C22  1283               	bcf	3,5	;RP0=0, select bank0
  5713  0C23  1303               	bcf	3,6	;RP1=0, select bank0
  5714  0C24  00A5               	movwf	Lcd_Set_Cursor@a
  5715  0C25                     l2919:
  5716                           
  5717                           ;LCD.c: 31:     char temp, z, y;;LCD.c: 32:     if (a == 1) {
  5718  0C25  0325               	decf	Lcd_Set_Cursor@a,w
  5719  0C26  1D03               	btfss	3,2
  5720  0C27  2C29               	goto	u4131
  5721  0C28  2C2A               	goto	u4130
  5722  0C29                     u4131:
  5723  0C29  2C4F               	goto	l2929
  5724  0C2A                     u4130:
  5725  0C2A                     l2921:
  5726                           
  5727                           ;LCD.c: 33:         temp = 0x80 + b - 1;
  5728  0C2A  0822               	movf	Lcd_Set_Cursor@b,w
  5729  0C2B  3E7F               	addlw	127
  5730  0C2C  00A3               	movwf	??_Lcd_Set_Cursor
  5731  0C2D  0823               	movf	??_Lcd_Set_Cursor,w
  5732  0C2E  00A8               	movwf	Lcd_Set_Cursor@temp
  5733                           
  5734                           ;LCD.c: 34:         z = temp >> 4;
  5735  0C2F  0828               	movf	Lcd_Set_Cursor@temp,w
  5736  0C30  00A3               	movwf	??_Lcd_Set_Cursor
  5737  0C31  3004               	movlw	4
  5738  0C32                     u4145:
  5739  0C32  1003               	clrc
  5740  0C33  0CA3               	rrf	??_Lcd_Set_Cursor,f
  5741  0C34  3EFF               	addlw	-1
  5742  0C35  1D03               	skipz
  5743  0C36  2C32               	goto	u4145
  5744  0C37  0823               	movf	??_Lcd_Set_Cursor,w
  5745  0C38  00A4               	movwf	??_Lcd_Set_Cursor+1
  5746  0C39  0824               	movf	??_Lcd_Set_Cursor+1,w
  5747  0C3A  00A6               	movwf	Lcd_Set_Cursor@z
  5748  0C3B                     l2923:
  5749                           
  5750                           ;LCD.c: 35:         y = temp & 0x0F;
  5751  0C3B  0828               	movf	Lcd_Set_Cursor@temp,w
  5752  0C3C  390F               	andlw	15
  5753  0C3D  00A3               	movwf	??_Lcd_Set_Cursor
  5754  0C3E  0823               	movf	??_Lcd_Set_Cursor,w
  5755  0C3F  00A7               	movwf	Lcd_Set_Cursor@y
  5756  0C40                     l2925:
  5757                           
  5758                           ;LCD.c: 36:         Lcd_Cmd(z);
  5759  0C40  0826               	movf	Lcd_Set_Cursor@z,w
  5760  0C41  120A  158A  221F  120A  158A  	fcall	_Lcd_Cmd
  5761  0C46                     l2927:
  5762                           
  5763                           ;LCD.c: 37:         Lcd_Cmd(y);
  5764  0C46  1283               	bcf	3,5	;RP0=0, select bank0
  5765  0C47  1303               	bcf	3,6	;RP1=0, select bank0
  5766  0C48  0827               	movf	Lcd_Set_Cursor@y,w
  5767  0C49  120A  158A  221F  120A  158A  	fcall	_Lcd_Cmd
  5768                           
  5769                           ;LCD.c: 38:     } else if (a == 2) {
  5770  0C4E  2C79               	goto	l78
  5771  0C4F                     l2929:
  5772  0C4F  3002               	movlw	2
  5773  0C50  0625               	xorwf	Lcd_Set_Cursor@a,w
  5774  0C51  1D03               	btfss	3,2
  5775  0C52  2C54               	goto	u4151
  5776  0C53  2C55               	goto	u4150
  5777  0C54                     u4151:
  5778  0C54  2C79               	goto	l78
  5779  0C55                     u4150:
  5780  0C55                     l2931:
  5781                           
  5782                           ;LCD.c: 39:         temp = 0xC0 + b - 1;
  5783  0C55  0822               	movf	Lcd_Set_Cursor@b,w
  5784  0C56  3EBF               	addlw	191
  5785  0C57  00A3               	movwf	??_Lcd_Set_Cursor
  5786  0C58  0823               	movf	??_Lcd_Set_Cursor,w
  5787  0C59  00A8               	movwf	Lcd_Set_Cursor@temp
  5788                           
  5789                           ;LCD.c: 40:         z = temp >> 4;
  5790  0C5A  0828               	movf	Lcd_Set_Cursor@temp,w
  5791  0C5B  00A3               	movwf	??_Lcd_Set_Cursor
  5792  0C5C  3004               	movlw	4
  5793  0C5D                     u4165:
  5794  0C5D  1003               	clrc
  5795  0C5E  0CA3               	rrf	??_Lcd_Set_Cursor,f
  5796  0C5F  3EFF               	addlw	-1
  5797  0C60  1D03               	skipz
  5798  0C61  2C5D               	goto	u4165
  5799  0C62  0823               	movf	??_Lcd_Set_Cursor,w
  5800  0C63  00A4               	movwf	??_Lcd_Set_Cursor+1
  5801  0C64  0824               	movf	??_Lcd_Set_Cursor+1,w
  5802  0C65  00A6               	movwf	Lcd_Set_Cursor@z
  5803  0C66                     l2933:
  5804                           
  5805                           ;LCD.c: 41:         y = temp & 0xF0;
  5806  0C66  0828               	movf	Lcd_Set_Cursor@temp,w
  5807  0C67  39F0               	andlw	240
  5808  0C68  00A3               	movwf	??_Lcd_Set_Cursor
  5809  0C69  0823               	movf	??_Lcd_Set_Cursor,w
  5810  0C6A  00A7               	movwf	Lcd_Set_Cursor@y
  5811  0C6B                     l2935:
  5812                           
  5813                           ;LCD.c: 42:         Lcd_Cmd(z);
  5814  0C6B  0826               	movf	Lcd_Set_Cursor@z,w
  5815  0C6C  120A  158A  221F  120A  158A  	fcall	_Lcd_Cmd
  5816  0C71                     l2937:
  5817                           
  5818                           ;LCD.c: 43:         Lcd_Cmd(y);
  5819  0C71  1283               	bcf	3,5	;RP0=0, select bank0
  5820  0C72  1303               	bcf	3,6	;RP1=0, select bank0
  5821  0C73  0827               	movf	Lcd_Set_Cursor@y,w
  5822  0C74  120A  158A  221F  120A  158A  	fcall	_Lcd_Cmd
  5823  0C79                     l78:
  5824  0C79  0008               	return
  5825  0C7A                     __end_of_Lcd_Set_Cursor:
  5826                           
  5827                           	psect	text17
  5828  0BD6                     __ptext17:	
  5829 ;; *************** function _Lcd_Init *****************
  5830 ;; Defined at:
  5831 ;;		line 47 in file "LCD.c"
  5832 ;; Parameters:    Size  Location     Type
  5833 ;;		None
  5834 ;; Auto vars:     Size  Location     Type
  5835 ;;		None
  5836 ;; Return value:  Size  Location     Type
  5837 ;;                  1    wreg      void 
  5838 ;; Registers used:
  5839 ;;		wreg, status,2, status,0, pclath, cstack
  5840 ;; Tracked objects:
  5841 ;;		On entry : 0/0
  5842 ;;		On exit  : 0/0
  5843 ;;		Unchanged: 0/0
  5844 ;; Data sizes:     COMMON   BANK0   BANK1   BANK3   BANK2
  5845 ;;      Params:         0       0       0       0       0
  5846 ;;      Locals:         0       0       0       0       0
  5847 ;;      Temps:          0       2       0       0       0
  5848 ;;      Totals:         0       2       0       0       0
  5849 ;;Total ram usage:        2 bytes
  5850 ;; Hardware stack levels used: 1
  5851 ;; Hardware stack levels required when called: 3
  5852 ;; This function calls:
  5853 ;;		_Lcd_Cmd
  5854 ;;		_Lcd_Port
  5855 ;; This function is called by:
  5856 ;;		_main
  5857 ;; This function uses a non-reentrant model
  5858 ;;
  5859                           
  5860                           
  5861                           ;psect for function _Lcd_Init
  5862  0BD6                     _Lcd_Init:
  5863  0BD6                     l2939:	
  5864                           ;incstack = 0
  5865                           ; Regs used in _Lcd_Init: [wreg+status,2+status,0+pclath+cstack]
  5866                           
  5867                           
  5868                           ;LCD.c: 48:     Lcd_Port(0x00);
  5869  0BD6  3000               	movlw	0
  5870  0BD7  120A  158A  2204  120A  158A  	fcall	_Lcd_Port
  5871  0BDC                     l2941:
  5872                           
  5873                           ;LCD.c: 49:     _delay((unsigned long)((20)*(8000000/4000.0)));
  5874  0BDC  3034               	movlw	52
  5875  0BDD  1283               	bcf	3,5	;RP0=0, select bank0
  5876  0BDE  1303               	bcf	3,6	;RP1=0, select bank0
  5877  0BDF  00A3               	movwf	??_Lcd_Init+1
  5878  0BE0  30F1               	movlw	241
  5879  0BE1  00A2               	movwf	??_Lcd_Init
  5880  0BE2                     u4927:
  5881  0BE2  0BA2               	decfsz	??_Lcd_Init,f
  5882  0BE3  2BE2               	goto	u4927
  5883  0BE4  0BA3               	decfsz	??_Lcd_Init+1,f
  5884  0BE5  2BE2               	goto	u4927
  5885  0BE6                     l2943:
  5886                           
  5887                           ;LCD.c: 50:     Lcd_Cmd(0x30);
  5888  0BE6  3030               	movlw	48
  5889  0BE7  120A  158A  221F  120A  158A  	fcall	_Lcd_Cmd
  5890                           
  5891                           ;LCD.c: 51:     _delay((unsigned long)((5)*(8000000/4000.0)));
  5892  0BEC  300D               	movlw	13
  5893  0BED  1283               	bcf	3,5	;RP0=0, select bank0
  5894  0BEE  1303               	bcf	3,6	;RP1=0, select bank0
  5895  0BEF  00A3               	movwf	??_Lcd_Init+1
  5896  0BF0  30FB               	movlw	251
  5897  0BF1  00A2               	movwf	??_Lcd_Init
  5898  0BF2                     u4937:
  5899  0BF2  0BA2               	decfsz	??_Lcd_Init,f
  5900  0BF3  2BF2               	goto	u4937
  5901  0BF4  0BA3               	decfsz	??_Lcd_Init+1,f
  5902  0BF5  2BF2               	goto	u4937
  5903  0BF6                     l2945:
  5904                           
  5905                           ;LCD.c: 52:     Lcd_Cmd(0x30);
  5906  0BF6  3030               	movlw	48
  5907  0BF7  120A  158A  221F  120A  158A  	fcall	_Lcd_Cmd
  5908  0BFC                     l2947:
  5909                           
  5910                           ;LCD.c: 53:     _delay((unsigned long)((200)*(8000000/4000000.0)));
  5911  0BFC  3084               	movlw	132
  5912  0BFD  1283               	bcf	3,5	;RP0=0, select bank0
  5913  0BFE  1303               	bcf	3,6	;RP1=0, select bank0
  5914  0BFF  00A2               	movwf	??_Lcd_Init
  5915  0C00                     u4947:
  5916  0C00  0BA2               	decfsz	??_Lcd_Init,f
  5917  0C01  2C00               	goto	u4947
  5918  0C02  0000               	nop
  5919                           
  5920                           ;LCD.c: 54:     Lcd_Cmd(0x30);
  5921  0C03  3030               	movlw	48
  5922  0C04  120A  158A  221F  120A  158A  	fcall	_Lcd_Cmd
  5923                           
  5924                           ;LCD.c: 56:     Lcd_Cmd(0x3C);
  5925  0C09  303C               	movlw	60
  5926  0C0A  120A  158A  221F  120A  158A  	fcall	_Lcd_Cmd
  5927                           
  5928                           ;LCD.c: 58:     Lcd_Cmd(0x08);
  5929  0C0F  3008               	movlw	8
  5930  0C10  120A  158A  221F  120A  158A  	fcall	_Lcd_Cmd
  5931                           
  5932                           ;LCD.c: 60:     Lcd_Cmd(0x01);
  5933  0C15  3001               	movlw	1
  5934  0C16  120A  158A  221F  120A  158A  	fcall	_Lcd_Cmd
  5935                           
  5936                           ;LCD.c: 62:     Lcd_Cmd(0x06);
  5937  0C1B  3006               	movlw	6
  5938  0C1C  120A  158A  221F  120A  158A  	fcall	_Lcd_Cmd
  5939  0C21                     l81:
  5940  0C21  0008               	return
  5941  0C22                     __end_of_Lcd_Init:
  5942                           
  5943                           	psect	text18
  5944  0A12                     __ptext18:	
  5945 ;; *************** function _Lcd_Clear *****************
  5946 ;; Defined at:
  5947 ;;		line 25 in file "LCD.c"
  5948 ;; Parameters:    Size  Location     Type
  5949 ;;		None
  5950 ;; Auto vars:     Size  Location     Type
  5951 ;;		None
  5952 ;; Return value:  Size  Location     Type
  5953 ;;                  1    wreg      void 
  5954 ;; Registers used:
  5955 ;;		wreg, status,2, status,0, pclath, cstack
  5956 ;; Tracked objects:
  5957 ;;		On entry : 0/0
  5958 ;;		On exit  : 0/0
  5959 ;;		Unchanged: 0/0
  5960 ;; Data sizes:     COMMON   BANK0   BANK1   BANK3   BANK2
  5961 ;;      Params:         0       0       0       0       0
  5962 ;;      Locals:         0       0       0       0       0
  5963 ;;      Temps:          0       0       0       0       0
  5964 ;;      Totals:         0       0       0       0       0
  5965 ;;Total ram usage:        0 bytes
  5966 ;; Hardware stack levels used: 1
  5967 ;; Hardware stack levels required when called: 3
  5968 ;; This function calls:
  5969 ;;		_Lcd_Cmd
  5970 ;; This function is called by:
  5971 ;;		_main
  5972 ;; This function uses a non-reentrant model
  5973 ;;
  5974                           
  5975                           
  5976                           ;psect for function _Lcd_Clear
  5977  0A12                     _Lcd_Clear:
  5978  0A12                     l2917:	
  5979                           ;incstack = 0
  5980                           ; Regs used in _Lcd_Clear: [wreg+status,2+status,0+pclath+cstack]
  5981                           
  5982                           
  5983                           ;LCD.c: 26:     Lcd_Cmd(0);
  5984  0A12  3000               	movlw	0
  5985  0A13  120A  158A  221F  120A  158A  	fcall	_Lcd_Cmd
  5986                           
  5987                           ;LCD.c: 27:     Lcd_Cmd(1);
  5988  0A18  3001               	movlw	1
  5989  0A19  120A  158A  221F  120A  158A  	fcall	_Lcd_Cmd
  5990  0A1E                     l72:
  5991  0A1E  0008               	return
  5992  0A1F                     __end_of_Lcd_Clear:
  5993                           
  5994                           	psect	text19
  5995  0A1F                     __ptext19:	
  5996 ;; *************** function _Lcd_Cmd *****************
  5997 ;; Defined at:
  5998 ;;		line 17 in file "LCD.c"
  5999 ;; Parameters:    Size  Location     Type
  6000 ;;  a               1    wreg     unsigned char 
  6001 ;; Auto vars:     Size  Location     Type
  6002 ;;  a               1    5[COMMON] unsigned char 
  6003 ;; Return value:  Size  Location     Type
  6004 ;;                  1    wreg      void 
  6005 ;; Registers used:
  6006 ;;		wreg, status,2, status,0, pclath, cstack
  6007 ;; Tracked objects:
  6008 ;;		On entry : 0/0
  6009 ;;		On exit  : 0/0
  6010 ;;		Unchanged: 0/0
  6011 ;; Data sizes:     COMMON   BANK0   BANK1   BANK3   BANK2
  6012 ;;      Params:         0       0       0       0       0
  6013 ;;      Locals:         1       0       0       0       0
  6014 ;;      Temps:          0       2       0       0       0
  6015 ;;      Totals:         1       2       0       0       0
  6016 ;;Total ram usage:        3 bytes
  6017 ;; Hardware stack levels used: 1
  6018 ;; Hardware stack levels required when called: 2
  6019 ;; This function calls:
  6020 ;;		_Lcd_Port
  6021 ;; This function is called by:
  6022 ;;		_Lcd_Clear
  6023 ;;		_Lcd_Set_Cursor
  6024 ;;		_Lcd_Init
  6025 ;;		_Lcd_Shift_Right
  6026 ;;		_Lcd_Shift_Left
  6027 ;; This function uses a non-reentrant model
  6028 ;;
  6029                           
  6030                           
  6031                           ;psect for function _Lcd_Cmd
  6032  0A1F                     _Lcd_Cmd:
  6033                           
  6034                           ;incstack = 0
  6035                           ; Regs used in _Lcd_Cmd: [wreg+status,2+status,0+pclath+cstack]
  6036                           ;Lcd_Cmd@a stored from wreg
  6037  0A1F  00F5               	movwf	Lcd_Cmd@a
  6038  0A20                     l2647:
  6039                           
  6040                           ;LCD.c: 18:     RE0 = 0;
  6041  0A20  1283               	bcf	3,5	;RP0=0, select bank0
  6042  0A21  1303               	bcf	3,6	;RP1=0, select bank0
  6043  0A22  1009               	bcf	9,0	;volatile
  6044  0A23                     l2649:
  6045                           
  6046                           ;LCD.c: 19:     Lcd_Port(a);
  6047  0A23  0875               	movf	Lcd_Cmd@a,w
  6048  0A24  120A  158A  2204  120A  158A  	fcall	_Lcd_Port
  6049  0A29                     l2651:
  6050                           
  6051                           ;LCD.c: 20:     RE1 = 1;
  6052  0A29  1283               	bcf	3,5	;RP0=0, select bank0
  6053  0A2A  1303               	bcf	3,6	;RP1=0, select bank0
  6054  0A2B  1489               	bsf	9,1	;volatile
  6055  0A2C                     l2653:
  6056                           
  6057                           ;LCD.c: 21:     _delay((unsigned long)((4)*(8000000/4000.0)));
  6058  0A2C  300B               	movlw	11
  6059  0A2D  1283               	bcf	3,5	;RP0=0, select bank0
  6060  0A2E  1303               	bcf	3,6	;RP1=0, select bank0
  6061  0A2F  00A1               	movwf	??_Lcd_Cmd+1
  6062  0A30  3061               	movlw	97
  6063  0A31  00A0               	movwf	??_Lcd_Cmd
  6064  0A32                     u4957:
  6065  0A32  0BA0               	decfsz	??_Lcd_Cmd,f
  6066  0A33  2A32               	goto	u4957
  6067  0A34  0BA1               	decfsz	??_Lcd_Cmd+1,f
  6068  0A35  2A32               	goto	u4957
  6069  0A36  2A37               	nop2
  6070  0A37                     l2655:
  6071                           
  6072                           ;LCD.c: 22:     RE1 = 0;
  6073  0A37  1283               	bcf	3,5	;RP0=0, select bank0
  6074  0A38  1303               	bcf	3,6	;RP1=0, select bank0
  6075  0A39  1089               	bcf	9,1	;volatile
  6076  0A3A                     l69:
  6077  0A3A  0008               	return
  6078  0A3B                     __end_of_Lcd_Cmd:
  6079                           
  6080                           	psect	text20
  6081  0A04                     __ptext20:	
  6082 ;; *************** function _Lcd_Port *****************
  6083 ;; Defined at:
  6084 ;;		line 12 in file "LCD.c"
  6085 ;; Parameters:    Size  Location     Type
  6086 ;;  a               1    wreg     unsigned char 
  6087 ;; Auto vars:     Size  Location     Type
  6088 ;;  a               1    4[COMMON] unsigned char 
  6089 ;; Return value:  Size  Location     Type
  6090 ;;                  1    wreg      void 
  6091 ;; Registers used:
  6092 ;;		wreg
  6093 ;; Tracked objects:
  6094 ;;		On entry : 0/0
  6095 ;;		On exit  : 0/0
  6096 ;;		Unchanged: 0/0
  6097 ;; Data sizes:     COMMON   BANK0   BANK1   BANK3   BANK2
  6098 ;;      Params:         0       0       0       0       0
  6099 ;;      Locals:         1       0       0       0       0
  6100 ;;      Temps:          0       0       0       0       0
  6101 ;;      Totals:         1       0       0       0       0
  6102 ;;Total ram usage:        1 bytes
  6103 ;; Hardware stack levels used: 1
  6104 ;; Hardware stack levels required when called: 1
  6105 ;; This function calls:
  6106 ;;		Nothing
  6107 ;; This function is called by:
  6108 ;;		_Lcd_Cmd
  6109 ;;		_Lcd_Init
  6110 ;;		_Lcd_Write_Char
  6111 ;; This function uses a non-reentrant model
  6112 ;;
  6113                           
  6114                           
  6115                           ;psect for function _Lcd_Port
  6116  0A04                     _Lcd_Port:
  6117                           
  6118                           ;incstack = 0
  6119                           ; Regs used in _Lcd_Port: [wreg]
  6120                           ;Lcd_Port@a stored from wreg
  6121  0A04  00F4               	movwf	Lcd_Port@a
  6122  0A05                     l2645:
  6123                           
  6124                           ;LCD.c: 13:     PORTD = a;
  6125  0A05  0874               	movf	Lcd_Port@a,w
  6126  0A06  1283               	bcf	3,5	;RP0=0, select bank0
  6127  0A07  1303               	bcf	3,6	;RP1=0, select bank0
  6128  0A08  0088               	movwf	8	;volatile
  6129  0A09                     l66:
  6130  0A09  0008               	return
  6131  0A0A                     __end_of_Lcd_Port:
  6132                           
  6133                           	psect	text21
  6134  0AF6                     __ptext21:	
  6135 ;; *************** function _isr *****************
  6136 ;; Defined at:
  6137 ;;		line 63 in file "Slave_1_main.c"
  6138 ;; Parameters:    Size  Location     Type
  6139 ;;		None
  6140 ;; Auto vars:     Size  Location     Type
  6141 ;;		None
  6142 ;; Return value:  Size  Location     Type
  6143 ;;                  1    wreg      void 
  6144 ;; Registers used:
  6145 ;;		wreg
  6146 ;; Tracked objects:
  6147 ;;		On entry : 0/0
  6148 ;;		On exit  : 0/0
  6149 ;;		Unchanged: 0/0
  6150 ;; Data sizes:     COMMON   BANK0   BANK1   BANK3   BANK2
  6151 ;;      Params:         0       0       0       0       0
  6152 ;;      Locals:         0       0       0       0       0
  6153 ;;      Temps:          4       0       0       0       0
  6154 ;;      Totals:         4       0       0       0       0
  6155 ;;Total ram usage:        4 bytes
  6156 ;; Hardware stack levels used: 1
  6157 ;; This function calls:
  6158 ;;		Nothing
  6159 ;; This function is called by:
  6160 ;;		Interrupt level 1
  6161 ;; This function uses a non-reentrant model
  6162 ;;
  6163                           
  6164                           
  6165                           ;psect for function _isr
  6166  0AF6                     _isr:
  6167  0AF6                     i1l2617:
  6168                           
  6169                           ;Slave_1_main.c: 64:     if (ADIF == 1){
  6170  0AF6  1283               	bcf	3,5	;RP0=0, select bank0
  6171  0AF7  1303               	bcf	3,6	;RP1=0, select bank0
  6172  0AF8  1F0C               	btfss	12,6	;volatile
  6173  0AF9  2AFB               	goto	u352_21
  6174  0AFA  2AFC               	goto	u352_20
  6175  0AFB                     u352_21:
  6176  0AFB  2B1D               	goto	i1l172
  6177  0AFC                     u352_20:
  6178  0AFC                     i1l2619:
  6179                           
  6180                           ;Slave_1_main.c: 65:         sun_pot = ADRESH;
  6181  0AFC  081E               	movf	30,w	;volatile
  6182  0AFD  00F0               	movwf	??_isr
  6183  0AFE  01F1               	clrf	??_isr+1
  6184  0AFF  0870               	movf	??_isr,w
  6185  0B00  00EE               	movwf	_sun_pot
  6186  0B01  0871               	movf	??_isr+1,w
  6187  0B02  00EF               	movwf	_sun_pot+1
  6188                           
  6189                           ;Slave_1_main.c: 66:         sun_pot = sun_pot <<8;
  6190  0B03  086E               	movf	_sun_pot,w
  6191  0B04  00F1               	movwf	??_isr+1
  6192  0B05  01F0               	clrf	??_isr
  6193  0B06  0870               	movf	??_isr,w
  6194  0B07  00EE               	movwf	_sun_pot
  6195  0B08  0871               	movf	??_isr+1,w
  6196  0B09  00EF               	movwf	_sun_pot+1
  6197                           
  6198                           ;Slave_1_main.c: 67:         sun_pot |= ADRESL;
  6199  0B0A  1683               	bsf	3,5	;RP0=1, select bank1
  6200  0B0B  1303               	bcf	3,6	;RP1=0, select bank1
  6201  0B0C  081E               	movf	30,w	;volatile
  6202  0B0D  00F0               	movwf	??_isr
  6203  0B0E  01F1               	clrf	??_isr+1
  6204  0B0F  0870               	movf	??_isr,w
  6205  0B10  1283               	bcf	3,5	;RP0=0, select bank0
  6206  0B11  1303               	bcf	3,6	;RP1=0, select bank0
  6207  0B12  04EE               	iorwf	_sun_pot,f
  6208  0B13  0871               	movf	??_isr+1,w
  6209  0B14  04EF               	iorwf	_sun_pot+1,f
  6210  0B15                     i1l2621:
  6211                           
  6212                           ;Slave_1_main.c: 68:         ADIF = 0;
  6213  0B15  130C               	bcf	12,6	;volatile
  6214                           
  6215                           ;Slave_1_main.c: 69:         _delay((unsigned long)((50)*(8000000/4000000.0)));
  6216  0B16  3021               	movlw	33
  6217  0B17  00F0               	movwf	??_isr
  6218  0B18                     u496_27:
  6219  0B18  0BF0               	decfsz	??_isr,f
  6220  0B19  2B18               	goto	u496_27
  6221  0B1A                     i1l2623:
  6222                           
  6223                           ;Slave_1_main.c: 70:         ADCON0bits.GO = 1;
  6224  0B1A  1283               	bcf	3,5	;RP0=0, select bank0
  6225  0B1B  1303               	bcf	3,6	;RP1=0, select bank0
  6226  0B1C  149F               	bsf	31,1	;volatile
  6227  0B1D                     i1l172:
  6228  0B1D  0873               	movf	??_isr+3,w
  6229  0B1E  008A               	movwf	10
  6230  0B1F  0E72               	swapf	??_isr+2,w
  6231  0B20  0083               	movwf	3
  6232  0B21  0EFE               	swapf	btemp,f
  6233  0B22  0E7E               	swapf	btemp,w
  6234  0B23  0009               	retfie
  6235  0B24                     __end_of_isr:
  6236  007E                     btemp	set	126	;btemp
  6237  007E                     wtemp0	set	126
  6238                           
  6239                           	psect	intentry
  6240  0004                     __pintentry:	
  6241                           ;incstack = 0
  6242                           ; Regs used in _isr: [wreg]
  6243                           
  6244  0004                     interrupt_function:
  6245  007E                     saved_w	set	btemp
  6246  0004  00FE               	movwf	btemp
  6247  0005  0E03               	swapf	3,w
  6248  0006  00F2               	movwf	??_isr+2
  6249  0007  080A               	movf	10,w
  6250  0008  00F3               	movwf	??_isr+3
  6251  0009  120A  158A  2AF6   	ljmp	_isr
  6252                           
  6253                           	psect	config
  6254                           
  6255                           ;Config register CONFIG1 @ 0x2007
  6256                           ;	Oscillator Selection bits
  6257                           ;	FOSC = INTRC_NOCLKOUT, INTOSCIO oscillator: I/O function on RA6/OSC2/CLKOUT pin, I/O f
      +                          unction on RA7/OSC1/CLKIN
  6258                           ;	Watchdog Timer Enable bit
  6259                           ;	WDTE = OFF, WDT disabled and can be enabled by SWDTEN bit of the WDTCON register
  6260                           ;	Power-up Timer Enable bit
  6261                           ;	PWRTE = OFF, PWRT disabled
  6262                           ;	RE3/MCLR pin function select bit
  6263                           ;	MCLRE = OFF, RE3/MCLR pin function is digital input, MCLR internally tied to VDD
  6264                           ;	Code Protection bit
  6265                           ;	CP = OFF, Program memory code protection is disabled
  6266                           ;	Data Code Protection bit
  6267                           ;	CPD = OFF, Data memory code protection is disabled
  6268                           ;	Brown Out Reset Selection bits
  6269                           ;	BOREN = OFF, BOR disabled
  6270                           ;	Internal External Switchover bit
  6271                           ;	IESO = OFF, Internal/External Switchover mode is disabled
  6272                           ;	Fail-Safe Clock Monitor Enabled bit
  6273                           ;	FCMEN = OFF, Fail-Safe Clock Monitor is disabled
  6274                           ;	Low Voltage Programming Enable bit
  6275                           ;	LVP = OFF, RB3 pin has digital I/O, HV on MCLR must be used for programming
  6276                           ;	In-Circuit Debugger Mode bit
  6277                           ;	DEBUG = 0x1, unprogrammed default
  6278  2007                     	org	8199
  6279  2007  20D4               	dw	8404
  6280                           
  6281                           ;Config register CONFIG2 @ 0x2008
  6282                           ;	Brown-out Reset Selection bit
  6283                           ;	BOR4V = BOR40V, Brown-out Reset set to 4.0V
  6284                           ;	Flash Program Memory Self Write Enable bits
  6285                           ;	WRT = OFF, Write protection off
  6286  2008                     	org	8200
  6287  2008  3FFF               	dw	16383

Data Sizes:
    Strings     26
    Constant    10
    Data        0
    BSS         26
    Persistent  0
    Stack       0

Auto Spaces:
    Space          Size  Autos    Used
    COMMON           14      6      10
    BANK0            80     74      80
    BANK1            80      3      19
    BANK3            96      0       0
    BANK2            96      0       0

Pointer List with Targets:

    sprintf@f	PTR const unsigned char  size(1) Largest target is 9
		 -> STR_2(CODE[9]), 

    sprintf@sp	PTR unsigned char  size(1) Largest target is 16
		 -> buffer(BANK1[16]), 

    sprintf@ap	PTR void [1] size(1) Largest target is 2
		 -> ?_sprintf(BANK0[2]), 

    Lcd_Write_String@a	PTR unsigned char  size(1) Largest target is 17
		 -> STR_1(CODE[17]), 


Critical Paths under _main in COMMON

    _main->_Lcd_Write_Char
    _main->___fltol
    _sprintf->___lwmod
    _sprintf->___wmul
    _sprintf->_isdigit
    ___lwmod->___lwdiv
    ___flmul->__Umul8_16
    _Lcd_Write_String->_Lcd_Write_Char
    _Lcd_Write_Char->_Lcd_Port
    _Lcd_Set_Cursor->_Lcd_Cmd
    _Lcd_Init->_Lcd_Cmd
    _Lcd_Clear->_Lcd_Cmd
    _Lcd_Cmd->_Lcd_Port

Critical Paths under _isr in COMMON

    None.

Critical Paths under _main in BANK0

    _main->___fldiv
    _sprintf->___lwmod
    ___lwmod->___lwdiv
    ___flsub->___flmul
    ___flmul->___xxtofl
    ___fldiv->___flsub
    _Lcd_Write_String->_Lcd_Write_Char
    _Lcd_Set_Cursor->_Lcd_Cmd
    _Lcd_Init->_Lcd_Cmd
    _Lcd_Clear->_Lcd_Cmd

Critical Paths under _isr in BANK0

    None.

Critical Paths under _main in BANK1

    None.

Critical Paths under _isr in BANK1

    None.

Critical Paths under _main in BANK3

    None.

Critical Paths under _isr in BANK3

    None.

Critical Paths under _main in BANK2

    None.

Critical Paths under _isr in BANK2

    None.

Call Graph Tables:

 ---------------------------------------------------------------------------------
 (Depth) Function   	        Calls       Base Space   Used Autos Params    Refs
 ---------------------------------------------------------------------------------
 (0) _main                                                 3     3      0   12611
                                              0 BANK1      3     3      0
                          _Lcd_Clear
                           _Lcd_Init
                     _Lcd_Set_Cursor
                     _Lcd_Write_Char
                   _Lcd_Write_String
                            ___fldiv
                            ___flmul
                            ___flsub
                            ___fltol
                           ___xxtofl
                          _initSETUP
                            _sprintf
 ---------------------------------------------------------------------------------
 (1) _sprintf                                             25    20      5    2142
                                             12 BANK0     17    12      5
                            ___lwdiv
                            ___lwmod
                             ___wmul
                            _isdigit
 ---------------------------------------------------------------------------------
 (2) _isdigit                                              2     2      0      68
                                              4 COMMON     2     2      0
 ---------------------------------------------------------------------------------
 (2) ___wmul                                               6     2      4     316
                                              4 COMMON     2     2      0
                                              0 BANK0      4     0      4
 ---------------------------------------------------------------------------------
 (2) ___lwmod                                              6     2      4     311
                                              5 COMMON     1     1      0
                                              7 BANK0      5     1      4
                            ___lwdiv (ARG)
 ---------------------------------------------------------------------------------
 (2) ___lwdiv                                              8     4      4     421
                                              4 COMMON     1     1      0
                                              0 BANK0      7     3      4
 ---------------------------------------------------------------------------------
 (1) _initSETUP                                            1     1      0       0
                                              4 COMMON     1     1      0
 ---------------------------------------------------------------------------------
 (1) ___xxtofl                                            14    10      4     656
                                              0 BANK0     14    10      4
 ---------------------------------------------------------------------------------
 (1) ___fltol                                             11     7      4     427
                                              4 COMMON     2     2      0
                                              0 BANK0      9     5      4
 ---------------------------------------------------------------------------------
 (1) ___flsub                                              8     0      8    3367
                                             40 BANK0      8     0      8
                            ___fladd
                            ___flmul (ARG)
                           ___xxtofl (ARG)
 ---------------------------------------------------------------------------------
 (2) ___fladd                                             20    12      8    3122
                                              0 BANK0     20    12      8
 ---------------------------------------------------------------------------------
 (1) ___flmul                                             26    18      8    3533
                                             14 BANK0     26    18      8
                          __Umul8_16
                           ___xxtofl (ARG)
 ---------------------------------------------------------------------------------
 (2) __Umul8_16                                            9     7      2     980
                                              4 COMMON     2     0      2
                                              0 BANK0      7     7      0
 ---------------------------------------------------------------------------------
 (1) ___fldiv                                             26    18      8    1273
                                             48 BANK0     26    18      8
                            ___flmul (ARG)
                            ___flsub (ARG)
                           ___xxtofl (ARG)
 ---------------------------------------------------------------------------------
 (1) _Lcd_Write_String                                     3     3      0     296
                                              3 BANK0      3     3      0
                     _Lcd_Write_Char
 ---------------------------------------------------------------------------------
 (2) _Lcd_Write_Char                                       4     4      0     130
                                              5 COMMON     1     1      0
                                              0 BANK0      3     3      0
                           _Lcd_Port
 ---------------------------------------------------------------------------------
 (1) _Lcd_Set_Cursor                                       7     6      1     632
                                              2 BANK0      7     6      1
                            _Lcd_Cmd
 ---------------------------------------------------------------------------------
 (1) _Lcd_Init                                             2     2      0      93
                                              2 BANK0      2     2      0
                            _Lcd_Cmd
                           _Lcd_Port
 ---------------------------------------------------------------------------------
 (1) _Lcd_Clear                                            0     0      0      62
                            _Lcd_Cmd
 ---------------------------------------------------------------------------------
 (2) _Lcd_Cmd                                              3     3      0      62
                                              5 COMMON     1     1      0
                                              0 BANK0      2     2      0
                           _Lcd_Port
 ---------------------------------------------------------------------------------
 (3) _Lcd_Port                                             1     1      0      31
                                              4 COMMON     1     1      0
 ---------------------------------------------------------------------------------
 Estimated maximum stack depth 3
 ---------------------------------------------------------------------------------
 (Depth) Function   	        Calls       Base Space   Used Autos Params    Refs
 ---------------------------------------------------------------------------------
 (4) _isr                                                  4     4      0       0
                                              0 COMMON     4     4      0
 ---------------------------------------------------------------------------------
 Estimated maximum stack depth 4
 ---------------------------------------------------------------------------------

 Call Graph Graphs:

 _main (ROOT)
   _Lcd_Clear
     _Lcd_Cmd
       _Lcd_Port
   _Lcd_Init
     _Lcd_Cmd
     _Lcd_Port
   _Lcd_Set_Cursor
     _Lcd_Cmd
   _Lcd_Write_Char
     _Lcd_Port
   _Lcd_Write_String
     _Lcd_Write_Char
   ___fldiv
     ___flmul (ARG)
       __Umul8_16
       ___xxtofl (ARG)
     ___flsub (ARG)
       ___fladd
       ___flmul (ARG)
       ___xxtofl (ARG)
     ___xxtofl (ARG)
   ___flmul
   ___flsub
   ___fltol
   ___xxtofl
   _initSETUP
   _sprintf
     ___lwdiv
     ___lwmod
       ___lwdiv (ARG)
     ___wmul
     _isdigit

 _isr (ROOT)

 Address spaces:
Name               Size   Autos  Total    Cost      Usage
BITCOMMON            E      0       0       0        0.0%
EEDATA             100      0       0       0        0.0%
NULL                 0      0       0       0        0.0%
CODE                 0      0       0       0        0.0%
COMMON               E      6       A       1       71.4%
BITSFR0              0      0       0       1        0.0%
SFR0                 0      0       0       1        0.0%
BITSFR1              0      0       0       2        0.0%
SFR1                 0      0       0       2        0.0%
STACK                0      0       0       2        0.0%
ABS                  0      0      6D       3        0.0%
BITBANK0            50      0       0       4        0.0%
BITSFR3              0      0       0       4        0.0%
SFR3                 0      0       0       4        0.0%
BANK0               50     4A      50       5      100.0%
BITSFR2              0      0       0       5        0.0%
SFR2                 0      0       0       5        0.0%
BITBANK1            50      0       0       6        0.0%
BANK1               50      3      13       7       23.8%
BITBANK3            60      0       0       8        0.0%
BANK3               60      0       0       9        0.0%
BITBANK2            60      0       0      10        0.0%
BANK2               60      0       0      11        0.0%
DATA                 0      0      6D      12        0.0%


Microchip Technology PIC Macro Assembler V2.32 build 20210201212658 
Symbol Table                                                                                   Tue Sep 07 14:50:52 2021

             ___fldiv@aexp 0069               ___fldiv@bexp 0068                          pc 0002  
             ___fldiv@sign 0061                         l72 0A1E                         l81 0C21  
                       l66 0A09                         l90 0ACC                         l84 0A58  
                       l69 0A3A                         l78 0C79                         fsr 0004  
      ___wmul@multiplicand 0022        __Umul8_16@word_mpld 0024                        l175 0B53  
                      l610 055E                        l602 0610                        l620 05A4  
                      l292 0FFF                        l614 0582                        l631 0604  
                      l623 05E2                        l704 0AE3                        l632 0610  
                      l296 0A8B                        l706 0AF5                        l482 0CF5  
                      l298 0AA3                        l635 0A7C                        l731 0DB1  
                      l492 0CF5                        l661 075F                        l645 066D  
                      l742 0D7B                        l647 07ED                        l743 0D87  
                      l735 0D5F                        l568 0BD5                        l593 0493  
                      l489 0CE0                        l729 0D1A                        l578 0B8F  
                      l667 07D1                        l691 02F4                        l595 046A  
                      l669 07E1                        l685 0388                        l589 03EC  
                      l749 07FF                        l697 037C                        _GIE 005F  
                      _RE0 0048                        _RE1 0049                        _LDR 0076  
                      _isr 0AF6                        fsr0 0004                        indf 0000  
             ___flmul@aexp 003C               ___flmul@bexp 0041               ___flmul@sign 003B  
             ___flmul@temp 0046               ___flmul@prod 0042               ___fltol@exp1 0075  
                     l2101 0B24                       l2111 0B2C                       l2103 0B28  
                     l2121 0B33                       l2113 0B2F                       l2105 0B29  
                     l3001 0F68                       l2131 0B3E                       l2123 0B38  
                     l2115 0B30                       l2107 0B2A                       l3011 0F90  
                     l3003 0F73                       l2301 0650                       l3101 0065  
                     l2141 0B49                       l2133 0B3F                       l2125 0B3B  
                     l2117 0B31                       l2109 0B2B                       l3021 0FDC  
                     l3013 0F94                       l3005 0F7F                       l2303 0655  
                     l2311 0665                       l3111 007A                       l3103 0066  
                     l2143 0B4A                       l2135 0B40                       l2127 0B3C  
                     l2119 0B32                       l3023 0FE0                       l3015 0FA0  
                     l3007 0F83                       l2401 07C8                       l2313 0675  
                     l2321 068E                       l2305 065A                       l3201 0356  
                     l3121 0095                       l3113 0082                       l3105 006B  
                     l3041 0C90                       l2145 0B4E                       l2137 0B41  
                     l2129 0B3D                       l3017 0FA5                       l3009 0F89  
                     l3025 0FE9                       l2403 07D0                       l2331 06B6  
                     l2323 0693                       l2315 0681                       l2307 0662  
                     l3211 0375                       l3203 0360                       l3131 0117  
                     l3123 00A5                       l3115 0087                       l3107 0070  
                     l3051 0CB4                       l3043 0CA5                       l3035 0C7A  
                     l2147 0B51                       l2139 0B47                       l3019 0FD5  
                     l3027 0FFB                       l2405 07D7                       l2341 06DF  
                     l2333 06BE                       l2317 0685                       l2309 0663  
                     l3213 0380                       l3205 0362                       l3141 0185  
                     l3133 0133                       l3125 00B2                       l3117 008C  
                     l3109 0078                       l3045 0CA6                       l3037 0C87  
                     l3221 0D02                       l2149 0B52                       l2407 07DB  
                     l2351 0700                       l2343 06E3                       l2335 06C6  
                     l2327 069C                       l3207 0370                       l3151 0215  
                     l3143 0195                       l3135 014F                       l3127 00CF  
                     l3071 0A59                       l3047 0CAE                       l3231 0D30  
                     l3223 0D12                       l2409 07DD                       l2361 0722  
                     l2353 070E                       l2345 06E4                       l2337 06C8  
                     l2329 06AE                       l2281 0623                       l2273 0611  
                     l3209 0374                       l3161 02A9                       l3153 0225  
                     l3145 01B2                       l3137 0158                       l3129 00EB  
                     l3081 0035                       l3073 0A5D                       l3065 0CD5  
                     l3057 0CBC                       l3049 0CB0                       l3241 0D66  
                     l3233 0D3D                       l3225 0D22                       l3217 0CF9  
                     l2363 072B                       l2371 073F                       l2339 06CD  
                     l2347 06ED                       l2355 0712                       l2283 0628  
                     l2291 0638                       l2275 0618                       l3171 02CE  
                     l3163 02B7                       l3155 0252                       l3147 01CB  
                     l3139 0168                       l3091 004C                       l3083 0039  
                     l3067 0CE5                       l3059 0CCE                       l3251 0D9F  
                     l3243 0D71                       l3235 0D44                       l3219 0CFE  
                     l2373 0743                       l2365 072F                       l2357 0718  
                     l2349 06FF                       l2293 0640                       l2285 062D  
                     l2277 061E                       l3181 02F1                       l3165 02C0  
                     l3173 02D4                       l3157 0278                       l3149 01E8  
                     l3093 004E                       l3085 003A                       l3077 0028  
                     l3069 0CEA                       l3253 0DA4                       l3245 0D75  
                     l3237 0D48                       l3229 0D2B                       l2701 0BC4  
                     l2391 0794                       l2383 0764                       l2375 0744  
                     l2367 0730                       l2359 0720                       l2295 0645  
                     l2287 0635                       l2279 0622                       l3191 0310  
                     l3175 02D8                       l3167 02C4                       l3159 02A0  
                     l3095 0056                       l3087 003F                       l3079 002F  
                     l2711 0390                       l3255 0DA8                       l3247 0D7F  
                     l3239 0D56                       l2703 0BCB                       l1831 0B54  
                     l3271 0DD4                       l2385 0769                       l2393 079A  
                     l2377 0748                       l2369 0739                       l2297 064B  
                     l2289 0636                       l3193 0329                       l3185 02F9  
                     l3177 02D9                       l3169 02C5                       l3097 005B  
                     l3089 0044                       l2801 047E                       l2721 03A5  
                     l2713 0396                       l3257 0DA9                       l3249 0D89  
                     l2705 0BD1                       l1841 0B6E                       l1833 0B5C  
                     l3273 0E56                       l3265 0DB2                       l2651 0A29  
                     l2395 07A7                       l2387 0777                       l2379 075C  
                     l2299 064F                       l3187 02FE                       l3195 032F  
                     l3179 02DD                       l3099 0061                       l2803 0487  
                     l2731 03BD                       l2723 03AD                       l2715 039A  
                     l1843 0B78                       l1835 0B5F                       l3275 0E6D  
                     l3267 0DCB                       l2645 0A05                       l2653 0A2C  
                     l2661 0A47                       l2397 07B5                       l2389 077B  
                     l3197 033C                       l3189 030C                       l2901 060F  
                     l2821 04CD                       l2813 04A5                       l2805 048B  
                     l2741 03CF                       l2733 03C3                       l2725 03AE  
                     l2717 039B                       l2709 0389                       l1845 0B7E  
                     l1837 0B66                       l1781 07F0                       l3277 0E93  
                     l3269 0DD1                       l2655 0A37                       l2647 0A20  
                     l2663 0A4D                       l2399 07C4                       l2911 0AEC  
                     l2903 0AD0                       l3199 0347                       l2823 04CF  
                     l2815 04BC                       l2807 0497                       l2831 04E2  
                     l2743 03D4                       l2751 03E4                       l2735 03C4  
                     l2719 03A0                       l2727 03B0                       l1847 0B85  
                     l1839 0B6A                       l2671 0A7F                       l1783 07F6  
                     l2649 0A23                       l2921 0C2A                       l2665 0A50  
                     l2657 0A3E                       l2913 0AF1                       l2905 0AD2  
                     l2833 04F8                       l2841 0550                       l2825 04D3  
                     l2817 04C0                       l2809 049C                       l2761 0402  
                     l2753 03F2                       l2745 03D9                       l2737 03CA  
                     l2729 03B8                       l1849 0B8B                       l2673 0A85  
                     l1785 07FC                       l2931 0C55                       l2923 0C3B  
                     l2667 0A55                       l2659 0A46                       l2907 0AD9  
                     l2851 057D                       l2843 0566                       l2835 0536  
                     l2827 04D4                       l2819 04C4                       l2771 0416  
                     l2763 0406                       l2755 03F6                       l2747 03E1  
                     l2739 03CE                       l2691 0BA4                       l2683 0B90  
                     l2675 0A92                       l1787 07FE                       l1779 07EF  
                     l3299 0F2C                       l2917 0A12                       l2941 0BDC  
                     l2933 0C66                       l2925 0C40                       l2909 0ADD  
                     l2861 0590                       l2853 0581                       l2845 056B  
                     l2837 053C                       l2829 04DD                       l2781 042A  
                     l2773 041A                       l2765 040A                       l2757 03FA  
                     l2749 03E2                       l2693 0BA8                       l2685 0B94  
                     l2677 0A99                       l2669 0A7D                       l2943 0BE6  
                     l2935 0C6B                       l2927 0C46                       l2919 0C25  
                     l2951 0AAA                       l2871 05A1                       l2855 0586  
                     l2863 0592                       l2839 0541                       l2791 044E  
                     l2783 042E                       l2775 041E                       l2767 040E  
                     l2759 03FE                       l2695 0BAC                       l2687 0B9A  
                     l2679 0A9F                       l2945 0BF6                       l2937 0C71  
                     l2929 0C4F                       l2953 0AB7                       l2881 05C0  
                     l2857 0589                       l2849 0574                       l2865 0596  
                     l2793 046E                       l2785 0432                       l2777 0422  
                     l2769 0412                       l2697 0BBD                       l2689 0B9D  
                     l2961 0EB3                       l2947 0BFC                       l2939 0BD6  
                     l2955 0ABF                       l2891 05F9                       l2883 05DE  
                     l2875 05A9                       l2867 0597                       l2859 058B  
                     l2795 0477                       l2779 0426                       l2787 0436  
                     l2699 0BC3                       l2971 0ED6                       l2963 0EBA  
                     l2949 0AA7                       l2893 05FA                       l2885 05E7  
                     l2877 05AE                       l2869 059B                       l2797 0479  
                     l2789 0437                       l2973 0EEB                       l2965 0EBF  
                     l2957 0EA8                       l2895 05FE                       l2887 05EC  
                     l2879 05BC                       l2799 047D                       l2975 0EFE  
                     l2983 0F18                       l2967 0EC2                       l2959 0EAD  
                     l2897 0600                       l2889 05F4                       l2985 0F34  
                     l2977 0F02                       l2969 0ED2                       l2899 060B  
                     l2995 0F42                       l2987 0F3C                       l2979 0F13  
                     l2989 0F40                       l2999 0F5E                       _ADIF 0066  
                     ?_isr 0070                       STR_1 0810                       STR_2 0821  
                     u3000 07DB                       u3001 07DA                       u4000 05A8  
                     u4001 05A7                       u4010 05AE                       u4011 05AD  
                     u4100 0ADD                       u4020 05C0                       u4101 0ADC  
                     u4021 05BF                       u4030 05CF                       u4120 0AF1  
                     u4040 05DE                       u1800 07FC                       u4200 0F12  
                     u4121 0AF0                       u4041 05DD                       u1801 07FB  
                     u4201 0F11                       u4130 0C2A                       u4050 05E7  
                     u4210 0F5D                       u4131 0C29                       u4115 0AE4  
                     u4051 05E6                       u4035 05CA                       u4211 0F5C  
                     u4060 05EC                       u4300 0CB4                       u4220 0F68  
                     u4061 05EB                       u4301 0CB3                       u4221 0F67  
                     u4150 0C55                       u4070 05F9                       u4310 0CBB  
                     u4230 0F73                       u4151 0C54                       u4071 05F8  
                     u4311 0CBA                       u4231 0F72                       u4215 0F59  
                     u2800 06CD                       u2720 0622                       u4400 0044  
                     u4080 05FE                       u1920 0B5C                       u4240 0F89  
                     u4145 0C32                       u2801 06CC                       u2721 0621  
                     u4401 0043                       u4081 05FD                       u1921 0B5B  
                     u4241 0F88                       u4170 0ACC                       u2730 0628  
                     u4410 0065                       u4090 060F                       u4330 0CCD  
                     u3610 0BBD                       u3530 0A85                       u4250 0FA0  
                     u4171 0ACB                       u2731 0627                       u4411 0064  
                     u4091 060E                       u4331 0CCC                       u3611 0BBC  
                     u3531 0A84                       u4251 0F9F                       u4235 0F6F  
                     u2740 062D                       u4420 006B                       u3700 03D9  
                     u4340 0CD4                       u1940 0B6E                       u4260 0FE9  
                     u4180 0EB3                       u4165 0C5D                       u2741 062C  
                     u4421 006A                       u3701 03D8                       u4341 0CD3  
                     u4325 0CBD                       u3605 0BAD                       u1941 0B6D  
                     u4261 0FE8                       u4181 0EB2                       u2910 0743  
                     u2830 06E3                       u2750 064F                       u4430 0070  
                     u3710 03F2                       u3630 0BD1                       u1950 0B78  
                     u1790 07F6                       u4270 0FFB                       u4190 0ED2  
                     u2911 0742                       u2831 06E2                       u2815 06CF  
                     u2751 064E                       u4511 0177                       u4431 006F  
                     u3711 03F1                       u3631 0BD0                       u3615 0BB9  
                     u1951 0B77                       u1935 0B60                       u1791 07F5  
                     u4271 0FFA                       u4191 0ED1                       u2920 0748  
                     u2760 0655                       u4512 017E                       u4440 0087  
                     u3800 0497                       u3720 03F6                       u3640 039A  
                     u4360 0CE5                       u4280 0C87                       u3560 0A9F  
                     u2921 0747                       u2905 0732                       u2825 06D8  
                     u2761 0654                       u4601 0292                       u4521 01A4  
                     u4513 0185                       u4505 0151                       u4441 0086  
                     u3801 0496                       u3721 03F5                       u3641 0399  
                     u4361 0CE4                       u4281 0C86                       u3625 0BC5  
                     u3561 0A9E                       u3545 0A8C                       u2930 075C  
                     u2850 06FF                       u2770 065A                       u4602 0299  
                     u4522 01AB                       u4450 008C                       u3810 049C  
                     u3730 044E                       u3650 03A0                       u4370 0CEA  
                     u4290 0C9E                       u3570 0B9A                       u1970 0B8B  
                     u2931 075B                       u2851 06FE                       u2771 0659  
                     u4603 02A0                       u4523 01B2                       u4451 008B  
                     u3811 049B                       u3731 044D                       u3651 039F  
                     u4371 0CE9                       u4355 0CD7                       u3571 0B99  
                     u1971 0B8A                       u1955 0B74                       u3555 0A93  
                     _PEIE 005E                       u2940 0763                       u2860 0718  
                     u2780 0675                       u4700 0310                       u4380 0039  
                     u3900 0541                       u3740 0459                       u3660 03A5  
                     u2941 0762                       u2861 0717                       u2845 06E6  
                     u2781 0674                       u4701 030F                       u4541 01DA  
                     u4461 00DD                       u4381 0038                       u3901 0540  
                     u3821 04AE                       u3741 0457                       u3661 03A4  
                     u1965 0B7F                       u2950 0769                       u2870 0720  
                     u2790 0693                       u4710 031F                       u4630 02C4  
                     u4542 01E1                       u4462 00E4                       u4390 003F  
                     u3910 0566                       u3830 04C0                       u3822 04B5  
                     u3750 045A                       u3670 03C3                       u3590 0BAC  
                     u2951 0768                       u2871 071F                       u2855 06FB  
                     u2791 0692                       u4631 02C3                       u4615 02A2  
                     u4551 0207                       u4543 01E8                       u4535 01B4  
                     u4471 00F9                       u4463 00EB                       u4391 003E  
                     u3911 0565                       u3831 04BF                       u3823 04BC  
                     u3735 044A                       u3671 03C2                       u4295 0C99  
                     u3591 0BAB                       u2960 077B                       u4720 033C  
                     u4552 020E                       u4472 0100                       u3920 056B  
                     u3840 04C4                       u3760 046E                       u3680 03CE  
                     u2961 077A                       u4721 033B                       u4625 02B9  
                     u4561 0234                       u4553 0215                       u4481 0125  
                     u4473 0107                       u3921 056A                       u3841 04C3  
                     u3761 046D                       u3681 03CD                       u3585 0B9E  
                     u2970 078A                       u2890 072F                       u4730 0356  
                     u4650 02D8                       u4570 025E                       u4562 023B  
                     u4482 012C                       u3850 04D3                       u3770 047D  
                     u3690 03D4                       u4810 0D65                       u2891 072E  
                     u4731 0355                       u4715 031A                       u4651 02D7  
                     u4563 0242                       u4491 0141                       u4483 0133  
                     u3851 04D2                       u3771 047C                       u3691 03D3  
                     u4811 0D64                       u2980 07A7                       u4740 0374  
                     u4660 02DD                       u4492 0148                       u3940 0581  
                     u2981 07A6                       u2885 0724                       u4741 0373  
                     u4725 0338                       u4661 02DC                       u4645 02C7  
                     u4581 026A                       u4493 014F                       u3941 0580  
                     u4805 0D57                       u2990 07C4                       u4670 02F1  
                     u4590 0286                       u4582 0271                       u3950 0586  
                     u3870 04F8                       u3790 0493                       u4830 0D75  
                     u4750 0CFE                       u2991 07C3                       u2975 0785  
                     u4735 0352                       u4671 02F0                       u4583 0278  
                     u4575 0259                       u3951 0585                       u3935 0576  
                     u3871 04F7                       u3791 0492                       u4831 0D74  
                     u4751 0CFD                       u4680 02F8                       u3960 0590  
                     u4840 0D7B                       u4760 0D02                       u2985 07A3  
                     u4681 02F7                       u3961 058F                       u3881 050F  
                     u3873 04F4                       u3865 04D6                       u3785 0480  
                     u4841 0D7A                       u4825 0D6A                       u4761 0D01  
                     u4690 02FE                       u3970 0596                       u3890 0523  
                     u3882 0510                       u4850 0D7F                       u4770 0D22  
                     u2995 07C0                       u4691 02FD                       u4595 0281  
                     u3971 0595                       u3891 0524                       u3883 0515  
                     u4851 0D7E                       u4771 0D21                       u4907 0B4C  
                     u3980 059B                       u3892 0529                       u3884 0516  
                     u4860 0D94                       u4917 0A52                       u3981 059A  
                     u3893 052A                       u3885 051B                       u3990 05A1  
                     u3886 051C                       u4870 0DA4                       u4790 0D43  
                     u4927 0BE2                       u3991 05A0                       u4871 0DA3  
                     u4791 0D42                       u4880 0DA8                       u4937 0BF2  
                     u4881 0DA7                       u4865 0D8F                       u4785 0D35  
                     u4947 0C00                       u4957 0A32                       u4897 0E9B  
        ?_Lcd_Write_String 0070                       _main 0DB2                       btemp 007E  
                     start 000C         ??_Lcd_Write_String 0076            ___fldiv@new_exp 0062  
          __end_of_Lcd_Cmd 0A3B                      ??_isr 0070              ___fltol@sign1 0074  
          __end_of___fladd 0611                      ?_main 0070            __end_of___fldiv 07EE  
          __end_of___flmul 0389            __end_of___flsub 0A7D            __end_of___fltol 0CF6  
                    _ANSEL 0188            __end_of___lwdiv 0BD6                      i1l172 0B1D  
          __end_of___lwmod 0B90                      _PORTA 0005                      _PORTB 0006  
                    _PORTC 0007                      _PORTD 0008                      _PORTE 0009  
  __size_of_Lcd_Set_Cursor 0058                      _TRISA 0085                      _TRISB 0086  
                    _TRISC 0087                      _TRISD 0088                      _SSPIE 0463  
                    _TRISE 0089                      _SSPIF 0063            __end_of_dpowers 0810  
          __end_of_isdigit 0800                      pclath 000A                      status 0003  
                    wtemp0 007E            __end_of_sprintf 1000           __end_of_Lcd_Init 0C22  
         __end_of_Lcd_Port 0A0A            __initialization 000F               __end_of_main 0EA5  
                   ??_main 00B0         __size_of_Lcd_Clear 000D                     _ADRESH 001E  
                   _ADRESL 009E                     _ANSELH 0189                     i1l2621 0B15  
                   i1l2623 0B1A                     i1l2617 0AF6                     i1l2619 0AFC  
                   u352_20 0AFC                     u352_21 0AFB                  ??_Lcd_Cmd 0020  
                   u496_27 0B18    __size_of_Lcd_Write_Char 001E                     _SSPADD 0093  
                   _TRISC3 043B                     _TRISC4 043C                     _SSPCON 0014  
                   _SSPBUF 0013           __end_of___xxtofl 0DB2                  ??___fladd 0028  
                   ___wmul 0A7D                  ??___fldiv 0058                  ??___flmul 0036  
                ??___flsub 0076                  ??___fltol 0024                     _an_sun 006A  
                ??___lwdiv 0074                  ??___lwmod 0075                     _buffer 00A0  
                ??_isdigit 0074         __size_of__Umul8_16 0029                     saved_w 007E  
                ??_sprintf 0031            Lcd_Set_Cursor@a 0025            Lcd_Set_Cursor@b 0022  
          Lcd_Set_Cursor@y 0027            Lcd_Set_Cursor@z 0026               ___xxtofl@arg 002A  
             ___xxtofl@exp 0029               ___xxtofl@val 0020    __end_of__initialization 0024  
        __end_of_Lcd_Clear 0A1F                 ___fltol@f1 0020             __pcstackCOMMON 0070  
           _Lcd_Set_Cursor 0C22                  ?_Lcd_Init 0070                  ?_Lcd_Port 0070  
             sprintf@width 003A                 __pbssBANK0 006A                 __pbssBANK1 00A0  
       __size_of_initSETUP 0030          __end_of__Umul8_16 0AF6                 __pmaintext 0DB2  
                  ?___wmul 0020                 __pintentry 0004  __size_of_Lcd_Write_String 0029  
   __end_of_Lcd_Set_Cursor 0C7A                  ?___xxtofl 0020                 ??_Lcd_Init 0022  
               ??_Lcd_Port 0074                    _SSPCON2 0091                    _SSPSTAT 0094  
               __stringtab 0800             _Lcd_Write_Char 0A3B                    _Lcd_Cmd 0A1F  
                  ___fladd 0389                    ___fldiv 0611                    ___flmul 0028  
                  ___flsub 0A59                    ___fltol 0C7A            __size_of___wmul 0027  
                  ___lwdiv 0B90                    ___lwmod 0B54          __end_of_initSETUP 0B54  
          ?_Lcd_Set_Cursor 0022                    __ptext1 0EA5                    __ptext2 07EE  
                  __ptext3 0A7D                    __ptext4 0B54                    __ptext5 0B90  
                  __ptext6 0B24                    __ptext7 0CF6                    __ptext8 0C7A  
                  __ptext9 0A59                    _dpowers 0806                    _isdigit 07EE  
             __size_of_isr 002E                 ??___xxtofl 0024                    _sprintf 0EA5  
                  clrloop0 0A0B                    _sun_pot 006E     __end_of_Lcd_Write_Char 0A59  
     end_of_initialization 0024                  Lcd_Port@a 0074                ___fladd@grs 0033  
            ___xxtofl@sign 0028                  _TRISCbits 0087                ___fldiv@grs 0064  
              ___fldiv@rem 005D            ?_Lcd_Write_Char 0070          Lcd_Write_String@a 0023  
        Lcd_Write_String@i 0024                ___flmul@grs 003D                  _Lcd_Clear 0A12  
           __end_of___wmul 0AA4           _Lcd_Write_String 0AA4        start_initialization 000F  
              __end_of_isr 0B24          __size_of_Lcd_Init 004C          __size_of_Lcd_Port 0006  
               ?_Lcd_Clear 0070                   ??___wmul 0074                  __Umul8_16 0ACD  
          Lcd_Write_Char@a 0020            Lcd_Write_Char@y 0022                  ___fladd@a 0024  
                ___fladd@b 0020                  ___fldiv@a 0050                  ___fldiv@b 0054  
                ___flmul@a 0032                  ___flmul@b 002E                __pbssCOMMON 0076  
                ___flsub@a 0048                  ___flsub@b 004C                  ___latbits 0002  
            __pcstackBANK0 0020              __pcstackBANK1 00B0          __size_of___xxtofl 00BC  
                 ?_Lcd_Cmd 0070                sprintf@flag 0034                sprintf@prec 0038  
         ___lwdiv@dividend 0022           ??_Lcd_Set_Cursor 0023                   ?___fladd 0020  
                 ?___fldiv 0050                   ?___flmul 002E                   ?___flsub 0048  
                 ?___fltol 0020                 ?__Umul8_16 0074                   ?___lwdiv 0020  
                 ?___lwmod 0027                  __pstrings 0800                   ?_isdigit 0070  
                _initSETUP 0B24           ___lwdiv@quotient 0025                   ?_sprintf 002C  
        interrupt_function 0004             ___wmul@product 0074                  clear_ram0 0A0A  
                 Lcd_Cmd@a 0075                ??_Lcd_Clear 0076                 _ADCON0bits 001F  
              __stringbase 0805                 _ADCON1bits 009F          ___wmul@multiplier 0020  
         ??_Lcd_Write_Char 0075                 ?_initSETUP 0070                   _Lcd_Init 0BD6  
                 _Lcd_Port 0A04   __end_of_Lcd_Write_String 0ACD           __size_of_Lcd_Cmd 001C  
              ??__Umul8_16 0020           __size_of___fladd 0288           __size_of___fldiv 01DD  
         __size_of___flmul 0361           __size_of___flsub 0024           __size_of___fltol 007C  
         __size_of___lwdiv 0046           __size_of___lwmod 003C         __end_of__stringtab 0806  
              _isdigit$797 0074                 sprintf@val 0036                   ___xxtofl 0CF6  
         __size_of_isdigit 0012            ___lwdiv@divisor 0020            ___lwdiv@counter 0024  
                 __ptext10 0389                   __ptext11 0028                   __ptext20 0A04  
                 __ptext12 0ACD                   __ptext21 0AF6                   __ptext13 0611  
                 __ptext14 0AA4                   __ptext15 0A3B                   __ptext16 0C22  
                 __ptext17 0BD6                   __ptext18 0A12                   __ptext19 0A1F  
         __size_of_sprintf 015B              __size_of_main 00F3                 _INTCONbits 000B  
              ??_initSETUP 0074                   isdigit@c 0075         Lcd_Write_Char@temp 0021  
                 intlevel1 0000                  sprintf@ap 0035                  sprintf@sp 0039  
         ___lwmod@dividend 0029                  stringcode 0800                 _OSCCONbits 008F  
       Lcd_Set_Cursor@temp 0028     __Umul8_16@multiplicand 0074                   sprintf@c 003C  
                 sprintf@f 002C            ___lwmod@divisor 0027            ___lwmod@counter 002B  
                 stringdir 0800                   stringtab 0800                _SSPCON2bits 0091  
            ___fladd@signs 0030               ___fladd@aexp 0031               ___fladd@bexp 0032  
     __Umul8_16@multiplier 0026          __Umul8_16@product 0022  
